
towers.riscv:     file format elf32-littleriscv


Disassembly of section .text.init:

80000000 <_start>:
80000000:	00000093          	li	ra,0
80000004:	00000113          	li	sp,0
80000008:	00000193          	li	gp,0
8000000c:	00000213          	li	tp,0
80000010:	00000293          	li	t0,0
80000014:	00000313          	li	t1,0
80000018:	00000393          	li	t2,0
8000001c:	00000413          	li	s0,0
80000020:	00000493          	li	s1,0
80000024:	00000513          	li	a0,0
80000028:	00000593          	li	a1,0
8000002c:	00000613          	li	a2,0
80000030:	00000693          	li	a3,0
80000034:	00000713          	li	a4,0
80000038:	00000793          	li	a5,0
8000003c:	00000813          	li	a6,0
80000040:	00000893          	li	a7,0
80000044:	00000913          	li	s2,0
80000048:	00000993          	li	s3,0
8000004c:	00000a13          	li	s4,0
80000050:	00000a93          	li	s5,0
80000054:	00000b13          	li	s6,0
80000058:	00000b93          	li	s7,0
8000005c:	00000c13          	li	s8,0
80000060:	00000c93          	li	s9,0
80000064:	00000d13          	li	s10,0
80000068:	00000d93          	li	s11,0
8000006c:	00000e13          	li	t3,0
80000070:	00000e93          	li	t4,0
80000074:	00000f13          	li	t5,0
80000078:	00000f93          	li	t6,0
8000007c:	0001e2b7          	lui	t0,0x1e
80000080:	60028293          	addi	t0,t0,1536 # 1e600 <buflen.1+0x1e5c0>
80000084:	3002a073          	csrs	mstatus,t0
80000088:	00100293          	li	t0,1
8000008c:	01f29293          	slli	t0,t0,0x1f
80000090:	0002ca63          	bltz	t0,800000a4 <_start+0xa4>
80000094:	00100513          	li	a0,1
80000098:	00001297          	auipc	t0,0x1
8000009c:	f6a2a423          	sw	a0,-152(t0) # 80001000 <tohost>
800000a0:	ff5ff06f          	j	80000094 <_start+0x94>
800000a4:	00000297          	auipc	t0,0x0
800000a8:	04028293          	addi	t0,t0,64 # 800000e4 <trap_entry>
800000ac:	30529073          	csrw	mtvec,t0
800000b0:	00006197          	auipc	gp,0x6
800000b4:	1d018193          	addi	gp,gp,464 # 80006280 <__global_pointer$>
800000b8:	93f18213          	addi	tp,gp,-1729 # 80005bbf <_end+0x3f>
800000bc:	fc027213          	andi	tp,tp,-64
800000c0:	f1402573          	csrr	a0,mhartid
800000c4:	00100593          	li	a1,1
800000c8:	00b57063          	bgeu	a0,a1,800000c8 <_start+0xc8>
800000cc:	00150113          	addi	sp,a0,1
800000d0:	01111113          	slli	sp,sp,0x11
800000d4:	00410133          	add	sp,sp,tp
800000d8:	01151613          	slli	a2,a0,0x11
800000dc:	00c20233          	add	tp,tp,a2
800000e0:	1790406f          	j	80004a58 <_init>

800000e4 <trap_entry>:
800000e4:	ef010113          	addi	sp,sp,-272
800000e8:	00112223          	sw	ra,4(sp)
800000ec:	00212423          	sw	sp,8(sp)
800000f0:	00312623          	sw	gp,12(sp)
800000f4:	00412823          	sw	tp,16(sp)
800000f8:	00512a23          	sw	t0,20(sp)
800000fc:	00612c23          	sw	t1,24(sp)
80000100:	00712e23          	sw	t2,28(sp)
80000104:	02812023          	sw	s0,32(sp)
80000108:	02912223          	sw	s1,36(sp)
8000010c:	02a12423          	sw	a0,40(sp)
80000110:	02b12623          	sw	a1,44(sp)
80000114:	02c12823          	sw	a2,48(sp)
80000118:	02d12a23          	sw	a3,52(sp)
8000011c:	02e12c23          	sw	a4,56(sp)
80000120:	02f12e23          	sw	a5,60(sp)
80000124:	05012023          	sw	a6,64(sp)
80000128:	05112223          	sw	a7,68(sp)
8000012c:	05212423          	sw	s2,72(sp)
80000130:	05312623          	sw	s3,76(sp)
80000134:	05412823          	sw	s4,80(sp)
80000138:	05512a23          	sw	s5,84(sp)
8000013c:	05612c23          	sw	s6,88(sp)
80000140:	05712e23          	sw	s7,92(sp)
80000144:	07812023          	sw	s8,96(sp)
80000148:	07912223          	sw	s9,100(sp)
8000014c:	07a12423          	sw	s10,104(sp)
80000150:	07b12623          	sw	s11,108(sp)
80000154:	07c12823          	sw	t3,112(sp)
80000158:	07d12a23          	sw	t4,116(sp)
8000015c:	07e12c23          	sw	t5,120(sp)
80000160:	07f12e23          	sw	t6,124(sp)
80000164:	34202573          	csrr	a0,mcause
80000168:	341025f3          	csrr	a1,mepc
8000016c:	00010613          	mv	a2,sp
80000170:	160040ef          	jal	800042d0 <handle_trap>
80000174:	34151073          	csrw	mepc,a0
80000178:	000022b7          	lui	t0,0x2
8000017c:	80028293          	addi	t0,t0,-2048 # 1800 <buflen.1+0x17c0>
80000180:	3002a073          	csrs	mstatus,t0
80000184:	00412083          	lw	ra,4(sp)
80000188:	00812103          	lw	sp,8(sp)
8000018c:	00c12183          	lw	gp,12(sp)
80000190:	01012203          	lw	tp,16(sp)
80000194:	01412283          	lw	t0,20(sp)
80000198:	01812303          	lw	t1,24(sp)
8000019c:	01c12383          	lw	t2,28(sp)
800001a0:	02012403          	lw	s0,32(sp)
800001a4:	02412483          	lw	s1,36(sp)
800001a8:	02812503          	lw	a0,40(sp)
800001ac:	02c12583          	lw	a1,44(sp)
800001b0:	03012603          	lw	a2,48(sp)
800001b4:	03412683          	lw	a3,52(sp)
800001b8:	03812703          	lw	a4,56(sp)
800001bc:	03c12783          	lw	a5,60(sp)
800001c0:	04012803          	lw	a6,64(sp)
800001c4:	04412883          	lw	a7,68(sp)
800001c8:	04812903          	lw	s2,72(sp)
800001cc:	04c12983          	lw	s3,76(sp)
800001d0:	05012a03          	lw	s4,80(sp)
800001d4:	05412a83          	lw	s5,84(sp)
800001d8:	05812b03          	lw	s6,88(sp)
800001dc:	05c12b83          	lw	s7,92(sp)
800001e0:	06012c03          	lw	s8,96(sp)
800001e4:	06412c83          	lw	s9,100(sp)
800001e8:	06812d03          	lw	s10,104(sp)
800001ec:	06c12d83          	lw	s11,108(sp)
800001f0:	07012e03          	lw	t3,112(sp)
800001f4:	07412e83          	lw	t4,116(sp)
800001f8:	07812f03          	lw	t5,120(sp)
800001fc:	07c12f83          	lw	t6,124(sp)
80000200:	11010113          	addi	sp,sp,272
80000204:	30200073          	mret

Disassembly of section .text:

80002000 <list_getSize>:
80002000:	00052503          	lw	a0,0(a0)
80002004:	00008067          	ret

80002008 <list_init>:
80002008:	00052023          	sw	zero,0(a0)
8000200c:	00052223          	sw	zero,4(a0)
80002010:	00008067          	ret

80002014 <list_push>:
80002014:	00004697          	auipc	a3,0x4
80002018:	a6c68693          	addi	a3,a3,-1428 # 80005a80 <g_nodeFreeList>
8000201c:	0046a783          	lw	a5,4(a3)
80002020:	00052703          	lw	a4,0(a0)
80002024:	0047a603          	lw	a2,4(a5)
80002028:	00170713          	addi	a4,a4,1
8000202c:	00c6a223          	sw	a2,4(a3)
80002030:	00452683          	lw	a3,4(a0)
80002034:	00d7a223          	sw	a3,4(a5)
80002038:	00f52223          	sw	a5,4(a0)
8000203c:	00b7a023          	sw	a1,0(a5)
80002040:	00e52023          	sw	a4,0(a0)
80002044:	00008067          	ret

80002048 <list_pop>:
80002048:	00452703          	lw	a4,4(a0)
8000204c:	00050793          	mv	a5,a0
80002050:	00052683          	lw	a3,0(a0)
80002054:	00472583          	lw	a1,4(a4)
80002058:	00072503          	lw	a0,0(a4)
8000205c:	00004617          	auipc	a2,0x4
80002060:	a2460613          	addi	a2,a2,-1500 # 80005a80 <g_nodeFreeList>
80002064:	00b7a223          	sw	a1,4(a5)
80002068:	00462583          	lw	a1,4(a2)
8000206c:	fff68693          	addi	a3,a3,-1
80002070:	00b72223          	sw	a1,4(a4)
80002074:	00e62223          	sw	a4,4(a2)
80002078:	00d7a023          	sw	a3,0(a5)
8000207c:	00008067          	ret

80002080 <list_clear>:
80002080:	00052703          	lw	a4,0(a0)
80002084:	02e05863          	blez	a4,800020b4 <list_clear+0x34>
80002088:	00004697          	auipc	a3,0x4
8000208c:	9f868693          	addi	a3,a3,-1544 # 80005a80 <g_nodeFreeList>
80002090:	00452783          	lw	a5,4(a0)
80002094:	fff70713          	addi	a4,a4,-1
80002098:	0047a603          	lw	a2,4(a5)
8000209c:	00c52223          	sw	a2,4(a0)
800020a0:	0046a603          	lw	a2,4(a3)
800020a4:	00c7a223          	sw	a2,4(a5)
800020a8:	00f6a223          	sw	a5,4(a3)
800020ac:	fe0712e3          	bnez	a4,80002090 <list_clear+0x10>
800020b0:	00052023          	sw	zero,0(a0)
800020b4:	00008067          	ret

800020b8 <towers_init>:
800020b8:	00052223          	sw	zero,4(a0)
800020bc:	00052423          	sw	zero,8(a0)
800020c0:	00052623          	sw	zero,12(a0)
800020c4:	00052823          	sw	zero,16(a0)
800020c8:	00052a23          	sw	zero,20(a0)
800020cc:	00052c23          	sw	zero,24(a0)
800020d0:	00052e23          	sw	zero,28(a0)
800020d4:	00b52023          	sw	a1,0(a0)
800020d8:	04b05863          	blez	a1,80002128 <towers_init+0x70>
800020dc:	00004817          	auipc	a6,0x4
800020e0:	9a480813          	addi	a6,a6,-1628 # 80005a80 <g_nodeFreeList>
800020e4:	00482783          	lw	a5,4(a6)
800020e8:	00058713          	mv	a4,a1
800020ec:	00000693          	li	a3,0
800020f0:	00c0006f          	j	800020fc <towers_init+0x44>
800020f4:	00078693          	mv	a3,a5
800020f8:	00060793          	mv	a5,a2
800020fc:	0047a603          	lw	a2,4(a5)
80002100:	00e7a023          	sw	a4,0(a5)
80002104:	00d7a223          	sw	a3,4(a5)
80002108:	fff70713          	addi	a4,a4,-1
8000210c:	fe0714e3          	bnez	a4,800020f4 <towers_init+0x3c>
80002110:	00c82223          	sw	a2,4(a6)
80002114:	00d7a223          	sw	a3,4(a5)
80002118:	00f52623          	sw	a5,12(a0)
8000211c:	00100713          	li	a4,1
80002120:	00e7a023          	sw	a4,0(a5)
80002124:	00b52423          	sw	a1,8(a0)
80002128:	00008067          	ret

8000212c <towers_clear>:
8000212c:	00852703          	lw	a4,8(a0)
80002130:	04e05263          	blez	a4,80002174 <towers_clear+0x48>
80002134:	00004817          	auipc	a6,0x4
80002138:	94c80813          	addi	a6,a6,-1716 # 80005a80 <g_nodeFreeList>
8000213c:	00482683          	lw	a3,4(a6)
80002140:	00c52783          	lw	a5,12(a0)
80002144:	00c0006f          	j	80002150 <towers_clear+0x24>
80002148:	00060793          	mv	a5,a2
8000214c:	00058693          	mv	a3,a1
80002150:	0047a603          	lw	a2,4(a5)
80002154:	fff70713          	addi	a4,a4,-1
80002158:	00d7a223          	sw	a3,4(a5)
8000215c:	00078593          	mv	a1,a5
80002160:	fe0714e3          	bnez	a4,80002148 <towers_clear+0x1c>
80002164:	00c52623          	sw	a2,12(a0)
80002168:	00d7a223          	sw	a3,4(a5)
8000216c:	00f82223          	sw	a5,4(a6)
80002170:	00052423          	sw	zero,8(a0)
80002174:	01052703          	lw	a4,16(a0)
80002178:	04e05263          	blez	a4,800021bc <towers_clear+0x90>
8000217c:	00004817          	auipc	a6,0x4
80002180:	90480813          	addi	a6,a6,-1788 # 80005a80 <g_nodeFreeList>
80002184:	00482683          	lw	a3,4(a6)
80002188:	01452783          	lw	a5,20(a0)
8000218c:	00c0006f          	j	80002198 <towers_clear+0x6c>
80002190:	00060793          	mv	a5,a2
80002194:	00058693          	mv	a3,a1
80002198:	0047a603          	lw	a2,4(a5)
8000219c:	fff70713          	addi	a4,a4,-1
800021a0:	00d7a223          	sw	a3,4(a5)
800021a4:	00078593          	mv	a1,a5
800021a8:	fe0714e3          	bnez	a4,80002190 <towers_clear+0x64>
800021ac:	00c52a23          	sw	a2,20(a0)
800021b0:	00d7a223          	sw	a3,4(a5)
800021b4:	00f82223          	sw	a5,4(a6)
800021b8:	00052823          	sw	zero,16(a0)
800021bc:	01852703          	lw	a4,24(a0)
800021c0:	02e05a63          	blez	a4,800021f4 <towers_clear+0xc8>
800021c4:	00004817          	auipc	a6,0x4
800021c8:	8bc80813          	addi	a6,a6,-1860 # 80005a80 <g_nodeFreeList>
800021cc:	00482683          	lw	a3,4(a6)
800021d0:	01c52783          	lw	a5,28(a0)
800021d4:	0080006f          	j	800021dc <towers_clear+0xb0>
800021d8:	00060793          	mv	a5,a2
800021dc:	0047a603          	lw	a2,4(a5)
800021e0:	fff70713          	addi	a4,a4,-1
800021e4:	00d7a223          	sw	a3,4(a5)
800021e8:	00078693          	mv	a3,a5
800021ec:	fe0716e3          	bnez	a4,800021d8 <towers_clear+0xac>
800021f0:	00f82223          	sw	a5,4(a6)
800021f4:	00052583          	lw	a1,0(a0)
800021f8:	00052223          	sw	zero,4(a0)
800021fc:	00052423          	sw	zero,8(a0)
80002200:	00052623          	sw	zero,12(a0)
80002204:	00052823          	sw	zero,16(a0)
80002208:	00052a23          	sw	zero,20(a0)
8000220c:	00052c23          	sw	zero,24(a0)
80002210:	00052e23          	sw	zero,28(a0)
80002214:	04b05863          	blez	a1,80002264 <towers_clear+0x138>
80002218:	00004817          	auipc	a6,0x4
8000221c:	86880813          	addi	a6,a6,-1944 # 80005a80 <g_nodeFreeList>
80002220:	00482783          	lw	a5,4(a6)
80002224:	00058713          	mv	a4,a1
80002228:	00000693          	li	a3,0
8000222c:	00c0006f          	j	80002238 <towers_clear+0x10c>
80002230:	00078693          	mv	a3,a5
80002234:	00060793          	mv	a5,a2
80002238:	0047a603          	lw	a2,4(a5)
8000223c:	00e7a023          	sw	a4,0(a5)
80002240:	00d7a223          	sw	a3,4(a5)
80002244:	fff70713          	addi	a4,a4,-1
80002248:	fe0714e3          	bnez	a4,80002230 <towers_clear+0x104>
8000224c:	00c82223          	sw	a2,4(a6)
80002250:	00d7a223          	sw	a3,4(a5)
80002254:	00f52623          	sw	a5,12(a0)
80002258:	00100713          	li	a4,1
8000225c:	00e7a023          	sw	a4,0(a5)
80002260:	00b52423          	sw	a1,8(a0)
80002264:	00008067          	ret

80002268 <towers_solve_h>:
80002268:	fa010113          	addi	sp,sp,-96
8000226c:	04912a23          	sw	s1,84(sp)
80002270:	05212823          	sw	s2,80(sp)
80002274:	05312623          	sw	s3,76(sp)
80002278:	04112e23          	sw	ra,92(sp)
8000227c:	00b12a23          	sw	a1,20(sp)
80002280:	00100913          	li	s2,1
80002284:	00c12c23          	sw	a2,24(sp)
80002288:	00d12823          	sw	a3,16(sp)
8000228c:	00e12e23          	sw	a4,28(sp)
80002290:	00050493          	mv	s1,a0
80002294:	00003997          	auipc	s3,0x3
80002298:	7ec98993          	addi	s3,s3,2028 # 80005a80 <g_nodeFreeList>
8000229c:	41258a63          	beq	a1,s2,800026b0 <towers_solve_h+0x448>
800022a0:	04812c23          	sw	s0,88(sp)
800022a4:	05412423          	sw	s4,72(sp)
800022a8:	05512223          	sw	s5,68(sp)
800022ac:	05612023          	sw	s6,64(sp)
800022b0:	03712e23          	sw	s7,60(sp)
800022b4:	03812c23          	sw	s8,56(sp)
800022b8:	03912a23          	sw	s9,52(sp)
800022bc:	03a12823          	sw	s10,48(sp)
800022c0:	03b12623          	sw	s11,44(sp)
800022c4:	01412783          	lw	a5,20(sp)
800022c8:	fff78793          	addi	a5,a5,-1
800022cc:	00f12a23          	sw	a5,20(sp)
800022d0:	2b278263          	beq	a5,s2,80002574 <towers_solve_h+0x30c>
800022d4:	01812783          	lw	a5,24(sp)
800022d8:	01c12b03          	lw	s6,28(sp)
800022dc:	00f12623          	sw	a5,12(sp)
800022e0:	01412783          	lw	a5,20(sp)
800022e4:	00f12423          	sw	a5,8(sp)
800022e8:	00812783          	lw	a5,8(sp)
800022ec:	fff78793          	addi	a5,a5,-1
800022f0:	00f12423          	sw	a5,8(sp)
800022f4:	1d278a63          	beq	a5,s2,800024c8 <towers_solve_h+0x260>
800022f8:	01012d83          	lw	s11,16(sp)
800022fc:	00c12a83          	lw	s5,12(sp)
80002300:	00f12223          	sw	a5,4(sp)
80002304:	00412783          	lw	a5,4(sp)
80002308:	fff78793          	addi	a5,a5,-1
8000230c:	00f12223          	sw	a5,4(sp)
80002310:	11278863          	beq	a5,s2,80002420 <towers_solve_h+0x1b8>
80002314:	00078a13          	mv	s4,a5
80002318:	000b0413          	mv	s0,s6
8000231c:	000a8d13          	mv	s10,s5
80002320:	fffa0a13          	addi	s4,s4,-1
80002324:	052a0c63          	beq	s4,s2,8000237c <towers_solve_h+0x114>
80002328:	000d8b93          	mv	s7,s11
8000232c:	000d0c93          	mv	s9,s10
80002330:	000a0c13          	mv	s8,s4
80002334:	fffc0c13          	addi	s8,s8,-1
80002338:	000c0593          	mv	a1,s8
8000233c:	000b8713          	mv	a4,s7
80002340:	00040693          	mv	a3,s0
80002344:	000c8613          	mv	a2,s9
80002348:	00048513          	mv	a0,s1
8000234c:	f1dff0ef          	jal	80002268 <towers_solve_h>
80002350:	00040713          	mv	a4,s0
80002354:	000b8693          	mv	a3,s7
80002358:	000c8613          	mv	a2,s9
8000235c:	00048513          	mv	a0,s1
80002360:	00100593          	li	a1,1
80002364:	f05ff0ef          	jal	80002268 <towers_solve_h>
80002368:	000c8713          	mv	a4,s9
8000236c:	012c0a63          	beq	s8,s2,80002380 <towers_solve_h+0x118>
80002370:	000b8c93          	mv	s9,s7
80002374:	00070b93          	mv	s7,a4
80002378:	fbdff06f          	j	80002334 <towers_solve_h+0xcc>
8000237c:	000d0b93          	mv	s7,s10
80002380:	004ba703          	lw	a4,4(s7)
80002384:	000ba603          	lw	a2,0(s7)
80002388:	0044a683          	lw	a3,4(s1)
8000238c:	00472503          	lw	a0,4(a4)
80002390:	00072583          	lw	a1,0(a4)
80002394:	fff60613          	addi	a2,a2,-1
80002398:	00aba223          	sw	a0,4(s7)
8000239c:	0049a503          	lw	a0,4(s3)
800023a0:	00cba023          	sw	a2,0(s7)
800023a4:	00042603          	lw	a2,0(s0)
800023a8:	00a9a223          	sw	a0,4(s3)
800023ac:	00442783          	lw	a5,4(s0)
800023b0:	00160613          	addi	a2,a2,1
800023b4:	00268693          	addi	a3,a3,2
800023b8:	00f72223          	sw	a5,4(a4)
800023bc:	00e42223          	sw	a4,4(s0)
800023c0:	004d2783          	lw	a5,4(s10)
800023c4:	00b72023          	sw	a1,0(a4)
800023c8:	00c42023          	sw	a2,0(s0)
800023cc:	0047a583          	lw	a1,4(a5)
800023d0:	000d2703          	lw	a4,0(s10)
800023d4:	0007a603          	lw	a2,0(a5)
800023d8:	00bd2223          	sw	a1,4(s10)
800023dc:	0049a583          	lw	a1,4(s3)
800023e0:	fff70713          	addi	a4,a4,-1
800023e4:	00ed2023          	sw	a4,0(s10)
800023e8:	00b9a223          	sw	a1,4(s3)
800023ec:	004da583          	lw	a1,4(s11)
800023f0:	000da703          	lw	a4,0(s11)
800023f4:	00b7a223          	sw	a1,4(a5)
800023f8:	00fda223          	sw	a5,4(s11)
800023fc:	00c7a023          	sw	a2,0(a5)
80002400:	00170793          	addi	a5,a4,1
80002404:	00fda023          	sw	a5,0(s11)
80002408:	00d4a223          	sw	a3,4(s1)
8000240c:	012a0e63          	beq	s4,s2,80002428 <towers_solve_h+0x1c0>
80002410:	000d0793          	mv	a5,s10
80002414:	00040d13          	mv	s10,s0
80002418:	00078413          	mv	s0,a5
8000241c:	f05ff06f          	j	80002320 <towers_solve_h+0xb8>
80002420:	0044a683          	lw	a3,4(s1)
80002424:	000a8413          	mv	s0,s5
80002428:	00442703          	lw	a4,4(s0)
8000242c:	00042783          	lw	a5,0(s0)
80002430:	00268693          	addi	a3,a3,2
80002434:	00472603          	lw	a2,4(a4)
80002438:	00072583          	lw	a1,0(a4)
8000243c:	fff78793          	addi	a5,a5,-1
80002440:	00c42223          	sw	a2,4(s0)
80002444:	0049a503          	lw	a0,4(s3)
80002448:	00f42023          	sw	a5,0(s0)
8000244c:	000da603          	lw	a2,0(s11)
80002450:	00a9a223          	sw	a0,4(s3)
80002454:	004da783          	lw	a5,4(s11)
80002458:	00160613          	addi	a2,a2,1
8000245c:	00f72223          	sw	a5,4(a4)
80002460:	00eda223          	sw	a4,4(s11)
80002464:	004aa783          	lw	a5,4(s5)
80002468:	00b72023          	sw	a1,0(a4)
8000246c:	00cda023          	sw	a2,0(s11)
80002470:	0047a583          	lw	a1,4(a5)
80002474:	000aa703          	lw	a4,0(s5)
80002478:	0007a603          	lw	a2,0(a5)
8000247c:	00baa223          	sw	a1,4(s5)
80002480:	0049a583          	lw	a1,4(s3)
80002484:	fff70713          	addi	a4,a4,-1
80002488:	00eaa023          	sw	a4,0(s5)
8000248c:	00b9a223          	sw	a1,4(s3)
80002490:	004b2583          	lw	a1,4(s6)
80002494:	000b2703          	lw	a4,0(s6)
80002498:	00b7a223          	sw	a1,4(a5)
8000249c:	00fb2223          	sw	a5,4(s6)
800024a0:	00c7a023          	sw	a2,0(a5)
800024a4:	00170793          	addi	a5,a4,1
800024a8:	00fb2023          	sw	a5,0(s6)
800024ac:	00412783          	lw	a5,4(sp)
800024b0:	00d4a223          	sw	a3,4(s1)
800024b4:	01278e63          	beq	a5,s2,800024d0 <towers_solve_h+0x268>
800024b8:	000a8793          	mv	a5,s5
800024bc:	000d8a93          	mv	s5,s11
800024c0:	00078d93          	mv	s11,a5
800024c4:	e41ff06f          	j	80002304 <towers_solve_h+0x9c>
800024c8:	0044a683          	lw	a3,4(s1)
800024cc:	00c12d83          	lw	s11,12(sp)
800024d0:	004da703          	lw	a4,4(s11)
800024d4:	000da783          	lw	a5,0(s11)
800024d8:	01012803          	lw	a6,16(sp)
800024dc:	00472603          	lw	a2,4(a4)
800024e0:	00072583          	lw	a1,0(a4)
800024e4:	fff78793          	addi	a5,a5,-1
800024e8:	00cda223          	sw	a2,4(s11)
800024ec:	0049a503          	lw	a0,4(s3)
800024f0:	00fda023          	sw	a5,0(s11)
800024f4:	000b2603          	lw	a2,0(s6)
800024f8:	00a9a223          	sw	a0,4(s3)
800024fc:	004b2783          	lw	a5,4(s6)
80002500:	00c12503          	lw	a0,12(sp)
80002504:	00160613          	addi	a2,a2,1
80002508:	00f72223          	sw	a5,4(a4)
8000250c:	00eb2223          	sw	a4,4(s6)
80002510:	00452783          	lw	a5,4(a0)
80002514:	00b72023          	sw	a1,0(a4)
80002518:	00cb2023          	sw	a2,0(s6)
8000251c:	0047a583          	lw	a1,4(a5)
80002520:	00052703          	lw	a4,0(a0)
80002524:	0007a603          	lw	a2,0(a5)
80002528:	00b52223          	sw	a1,4(a0)
8000252c:	0049a583          	lw	a1,4(s3)
80002530:	fff70713          	addi	a4,a4,-1
80002534:	00e52023          	sw	a4,0(a0)
80002538:	00b9a223          	sw	a1,4(s3)
8000253c:	00482583          	lw	a1,4(a6)
80002540:	00082703          	lw	a4,0(a6)
80002544:	00268693          	addi	a3,a3,2
80002548:	00b7a223          	sw	a1,4(a5)
8000254c:	00f82223          	sw	a5,4(a6)
80002550:	00c7a023          	sw	a2,0(a5)
80002554:	00170793          	addi	a5,a4,1
80002558:	00f82023          	sw	a5,0(a6)
8000255c:	00812783          	lw	a5,8(sp)
80002560:	00d4a223          	sw	a3,4(s1)
80002564:	01278c63          	beq	a5,s2,8000257c <towers_solve_h+0x314>
80002568:	01612623          	sw	s6,12(sp)
8000256c:	00050b13          	mv	s6,a0
80002570:	d79ff06f          	j	800022e8 <towers_solve_h+0x80>
80002574:	0044a683          	lw	a3,4(s1)
80002578:	01812b03          	lw	s6,24(sp)
8000257c:	004b2703          	lw	a4,4(s6)
80002580:	000b2783          	lw	a5,0(s6)
80002584:	01012803          	lw	a6,16(sp)
80002588:	00472603          	lw	a2,4(a4)
8000258c:	00072583          	lw	a1,0(a4)
80002590:	fff78793          	addi	a5,a5,-1
80002594:	00cb2223          	sw	a2,4(s6)
80002598:	0049a503          	lw	a0,4(s3)
8000259c:	00fb2023          	sw	a5,0(s6)
800025a0:	00082603          	lw	a2,0(a6)
800025a4:	00a9a223          	sw	a0,4(s3)
800025a8:	00482783          	lw	a5,4(a6)
800025ac:	01812503          	lw	a0,24(sp)
800025b0:	00160613          	addi	a2,a2,1
800025b4:	00f72223          	sw	a5,4(a4)
800025b8:	00e82223          	sw	a4,4(a6)
800025bc:	00452783          	lw	a5,4(a0)
800025c0:	00b72023          	sw	a1,0(a4)
800025c4:	00c82023          	sw	a2,0(a6)
800025c8:	0047a583          	lw	a1,4(a5)
800025cc:	00052703          	lw	a4,0(a0)
800025d0:	0007a603          	lw	a2,0(a5)
800025d4:	00b52223          	sw	a1,4(a0)
800025d8:	0049a583          	lw	a1,4(s3)
800025dc:	01c12883          	lw	a7,28(sp)
800025e0:	fff70713          	addi	a4,a4,-1
800025e4:	00e52023          	sw	a4,0(a0)
800025e8:	00b9a223          	sw	a1,4(s3)
800025ec:	0048a583          	lw	a1,4(a7)
800025f0:	0008a703          	lw	a4,0(a7)
800025f4:	00268693          	addi	a3,a3,2
800025f8:	00b7a223          	sw	a1,4(a5)
800025fc:	00f8a223          	sw	a5,4(a7)
80002600:	00c7a023          	sw	a2,0(a5)
80002604:	00170793          	addi	a5,a4,1
80002608:	00f8a023          	sw	a5,0(a7)
8000260c:	00d4a223          	sw	a3,4(s1)
80002610:	01412783          	lw	a5,20(sp)
80002614:	01278863          	beq	a5,s2,80002624 <towers_solve_h+0x3bc>
80002618:	01012c23          	sw	a6,24(sp)
8000261c:	00a12823          	sw	a0,16(sp)
80002620:	ca5ff06f          	j	800022c4 <towers_solve_h+0x5c>
80002624:	05812403          	lw	s0,88(sp)
80002628:	04812a03          	lw	s4,72(sp)
8000262c:	04412a83          	lw	s5,68(sp)
80002630:	04012b03          	lw	s6,64(sp)
80002634:	03c12b83          	lw	s7,60(sp)
80002638:	03812c03          	lw	s8,56(sp)
8000263c:	03412c83          	lw	s9,52(sp)
80002640:	03012d03          	lw	s10,48(sp)
80002644:	02c12d83          	lw	s11,44(sp)
80002648:	01012503          	lw	a0,16(sp)
8000264c:	05c12083          	lw	ra,92(sp)
80002650:	00168693          	addi	a3,a3,1
80002654:	00452783          	lw	a5,4(a0)
80002658:	00052703          	lw	a4,0(a0)
8000265c:	05012903          	lw	s2,80(sp)
80002660:	0047a583          	lw	a1,4(a5)
80002664:	0007a603          	lw	a2,0(a5)
80002668:	fff70713          	addi	a4,a4,-1
8000266c:	00b52223          	sw	a1,4(a0)
80002670:	0049a583          	lw	a1,4(s3)
80002674:	00e52023          	sw	a4,0(a0)
80002678:	01c12503          	lw	a0,28(sp)
8000267c:	00052703          	lw	a4,0(a0)
80002680:	00b9a223          	sw	a1,4(s3)
80002684:	00452583          	lw	a1,4(a0)
80002688:	00170713          	addi	a4,a4,1
8000268c:	04c12983          	lw	s3,76(sp)
80002690:	00b7a223          	sw	a1,4(a5)
80002694:	00f52223          	sw	a5,4(a0)
80002698:	00c7a023          	sw	a2,0(a5)
8000269c:	00e52023          	sw	a4,0(a0)
800026a0:	00d4a223          	sw	a3,4(s1)
800026a4:	05412483          	lw	s1,84(sp)
800026a8:	06010113          	addi	sp,sp,96
800026ac:	00008067          	ret
800026b0:	00452683          	lw	a3,4(a0)
800026b4:	00c12823          	sw	a2,16(sp)
800026b8:	f91ff06f          	j	80002648 <towers_solve_h+0x3e0>

800026bc <towers_solve>:
800026bc:	fe010113          	addi	sp,sp,-32
800026c0:	01212823          	sw	s2,16(sp)
800026c4:	00052903          	lw	s2,0(a0)
800026c8:	00812c23          	sw	s0,24(sp)
800026cc:	00912a23          	sw	s1,20(sp)
800026d0:	01312623          	sw	s3,12(sp)
800026d4:	01512223          	sw	s5,4(sp)
800026d8:	00850993          	addi	s3,a0,8
800026dc:	00112e23          	sw	ra,28(sp)
800026e0:	00100a93          	li	s5,1
800026e4:	00050413          	mv	s0,a0
800026e8:	00098493          	mv	s1,s3
800026ec:	05590e63          	beq	s2,s5,80002748 <towers_solve+0x8c>
800026f0:	01412423          	sw	s4,8(sp)
800026f4:	01050493          	addi	s1,a0,16
800026f8:	01850a13          	addi	s4,a0,24
800026fc:	fff90913          	addi	s2,s2,-1
80002700:	00090593          	mv	a1,s2
80002704:	00048713          	mv	a4,s1
80002708:	000a0693          	mv	a3,s4
8000270c:	00098613          	mv	a2,s3
80002710:	00040513          	mv	a0,s0
80002714:	b55ff0ef          	jal	80002268 <towers_solve_h>
80002718:	000a0713          	mv	a4,s4
8000271c:	00048693          	mv	a3,s1
80002720:	00098613          	mv	a2,s3
80002724:	00040513          	mv	a0,s0
80002728:	00100593          	li	a1,1
8000272c:	b3dff0ef          	jal	80002268 <towers_solve_h>
80002730:	00098793          	mv	a5,s3
80002734:	01590863          	beq	s2,s5,80002744 <towers_solve+0x88>
80002738:	00048993          	mv	s3,s1
8000273c:	00078493          	mv	s1,a5
80002740:	fbdff06f          	j	800026fc <towers_solve+0x40>
80002744:	00812a03          	lw	s4,8(sp)
80002748:	0044a783          	lw	a5,4(s1)
8000274c:	0004a703          	lw	a4,0(s1)
80002750:	00003697          	auipc	a3,0x3
80002754:	33068693          	addi	a3,a3,816 # 80005a80 <g_nodeFreeList>
80002758:	0047a583          	lw	a1,4(a5)
8000275c:	0007a603          	lw	a2,0(a5)
80002760:	fff70713          	addi	a4,a4,-1
80002764:	00b4a223          	sw	a1,4(s1)
80002768:	0046a503          	lw	a0,4(a3)
8000276c:	01c42583          	lw	a1,28(s0)
80002770:	00e4a023          	sw	a4,0(s1)
80002774:	00a6a223          	sw	a0,4(a3)
80002778:	00442703          	lw	a4,4(s0)
8000277c:	01842683          	lw	a3,24(s0)
80002780:	00b7a223          	sw	a1,4(a5)
80002784:	00f42e23          	sw	a5,28(s0)
80002788:	00c7a023          	sw	a2,0(a5)
8000278c:	00168693          	addi	a3,a3,1
80002790:	00170793          	addi	a5,a4,1
80002794:	01c12083          	lw	ra,28(sp)
80002798:	00d42c23          	sw	a3,24(s0)
8000279c:	00f42223          	sw	a5,4(s0)
800027a0:	01812403          	lw	s0,24(sp)
800027a4:	01412483          	lw	s1,20(sp)
800027a8:	01012903          	lw	s2,16(sp)
800027ac:	00c12983          	lw	s3,12(sp)
800027b0:	00412a83          	lw	s5,4(sp)
800027b4:	02010113          	addi	sp,sp,32
800027b8:	00008067          	ret

800027bc <towers_verify>:
800027bc:	00852783          	lw	a5,8(a0)
800027c0:	00050613          	mv	a2,a0
800027c4:	04079663          	bnez	a5,80002810 <towers_verify+0x54>
800027c8:	01052503          	lw	a0,16(a0)
800027cc:	06051663          	bnez	a0,80002838 <towers_verify+0x7c>
800027d0:	00062583          	lw	a1,0(a2)
800027d4:	01862783          	lw	a5,24(a2)
800027d8:	02b79863          	bne	a5,a1,80002808 <towers_verify+0x4c>
800027dc:	01c62783          	lw	a5,28(a2)
800027e0:	02078c63          	beqz	a5,80002818 <towers_verify+0x5c>
800027e4:	00000713          	li	a4,0
800027e8:	00c0006f          	j	800027f4 <towers_verify+0x38>
800027ec:	0047a783          	lw	a5,4(a5)
800027f0:	02078463          	beqz	a5,80002818 <towers_verify+0x5c>
800027f4:	0007a683          	lw	a3,0(a5)
800027f8:	00170713          	addi	a4,a4,1
800027fc:	fed708e3          	beq	a4,a3,800027ec <towers_verify+0x30>
80002800:	00500513          	li	a0,5
80002804:	00008067          	ret
80002808:	00400513          	li	a0,4
8000280c:	00008067          	ret
80002810:	00200513          	li	a0,2
80002814:	00008067          	ret
80002818:	00100793          	li	a5,1
8000281c:	00462703          	lw	a4,4(a2)
80002820:	00b797b3          	sll	a5,a5,a1
80002824:	fff78793          	addi	a5,a5,-1
80002828:	00f71463          	bne	a4,a5,80002830 <towers_verify+0x74>
8000282c:	00008067          	ret
80002830:	00600513          	li	a0,6
80002834:	00008067          	ret
80002838:	00300513          	li	a0,3
8000283c:	00008067          	ret

80002840 <sprintf_putch.0>:
80002840:	0005a783          	lw	a5,0(a1)
80002844:	00a78023          	sb	a0,0(a5)
80002848:	0005a783          	lw	a5,0(a1)
8000284c:	00178793          	addi	a5,a5,1
80002850:	00f5a023          	sw	a5,0(a1)
80002854:	00008067          	ret

80002858 <putchar>:
80002858:	04022783          	lw	a5,64(tp) # 40 <buflen.1>
8000285c:	00020713          	mv	a4,tp
80002860:	f8010113          	addi	sp,sp,-128
80002864:	00f70733          	add	a4,a4,a5
80002868:	00178793          	addi	a5,a5,1
8000286c:	00a70023          	sb	a0,0(a4)
80002870:	04f22023          	sw	a5,64(tp) # 40 <buflen.1>
80002874:	00a00713          	li	a4,10
80002878:	03f10693          	addi	a3,sp,63
8000287c:	fc06f693          	andi	a3,a3,-64
80002880:	00e50c63          	beq	a0,a4,80002898 <putchar+0x40>
80002884:	04000713          	li	a4,64
80002888:	00e78863          	beq	a5,a4,80002898 <putchar+0x40>
8000288c:	00000513          	li	a0,0
80002890:	08010113          	addi	sp,sp,128
80002894:	00008067          	ret
80002898:	04000813          	li	a6,64
8000289c:	0106a023          	sw	a6,0(a3)
800028a0:	00000893          	li	a7,0
800028a4:	0116a223          	sw	a7,4(a3)
800028a8:	00100e13          	li	t3,1
800028ac:	01c6a423          	sw	t3,8(a3)
800028b0:	00000e93          	li	t4,0
800028b4:	01d6a623          	sw	t4,12(a3)
800028b8:	00020313          	mv	t1,tp
800028bc:	0066a823          	sw	t1,16(a3)
800028c0:	00000393          	li	t2,0
800028c4:	0076aa23          	sw	t2,20(a3)
800028c8:	00f6ac23          	sw	a5,24(a3)
800028cc:	41f7d893          	srai	a7,a5,0x1f
800028d0:	0116ae23          	sw	a7,28(a3)
800028d4:	0330000f          	fence	rw,rw
800028d8:	ffffe617          	auipc	a2,0xffffe
800028dc:	72860613          	addi	a2,a2,1832 # 80001000 <tohost>
800028e0:	00d62023          	sw	a3,0(a2)
800028e4:	00000793          	li	a5,0
800028e8:	00f62223          	sw	a5,4(a2)
800028ec:	ffffe617          	auipc	a2,0xffffe
800028f0:	75460613          	addi	a2,a2,1876 # 80001040 <fromhost>
800028f4:	00062703          	lw	a4,0(a2)
800028f8:	00462783          	lw	a5,4(a2)
800028fc:	00f76733          	or	a4,a4,a5
80002900:	fe070ae3          	beqz	a4,800028f4 <putchar+0x9c>
80002904:	00000793          	li	a5,0
80002908:	00f62023          	sw	a5,0(a2)
8000290c:	00000813          	li	a6,0
80002910:	01062223          	sw	a6,4(a2)
80002914:	0330000f          	fence	rw,rw
80002918:	04022023          	sw	zero,64(tp) # 40 <buflen.1>
8000291c:	0006a703          	lw	a4,0(a3)
80002920:	00000513          	li	a0,0
80002924:	0046a783          	lw	a5,4(a3)
80002928:	08010113          	addi	sp,sp,128
8000292c:	00008067          	ret

80002930 <vprintfmt.constprop.1>:
80002930:	eb010113          	addi	sp,sp,-336
80002934:	14812423          	sw	s0,328(sp)
80002938:	14912223          	sw	s1,324(sp)
8000293c:	13812423          	sw	s8,296(sp)
80002940:	14112623          	sw	ra,332(sp)
80002944:	15212023          	sw	s2,320(sp)
80002948:	13312e23          	sw	s3,316(sp)
8000294c:	13512a23          	sw	s5,308(sp)
80002950:	13612823          	sw	s6,304(sp)
80002954:	13912223          	sw	s9,292(sp)
80002958:	13a12023          	sw	s10,288(sp)
8000295c:	11b12e23          	sw	s11,284(sp)
80002960:	00050413          	mv	s0,a0
80002964:	00058493          	mv	s1,a1
80002968:	00c12623          	sw	a2,12(sp)
8000296c:	02500c13          	li	s8,37
80002970:	0200006f          	j	80002990 <vprintfmt.constprop.1+0x60>
80002974:	06078863          	beqz	a5,800029e4 <vprintfmt.constprop.1+0xb4>
80002978:	00042703          	lw	a4,0(s0)
8000297c:	00148493          	addi	s1,s1,1
80002980:	00f70023          	sb	a5,0(a4)
80002984:	00042783          	lw	a5,0(s0)
80002988:	00178793          	addi	a5,a5,1
8000298c:	00f42023          	sw	a5,0(s0)
80002990:	0004c783          	lbu	a5,0(s1)
80002994:	ff8790e3          	bne	a5,s8,80002974 <vprintfmt.constprop.1+0x44>
80002998:	0014c603          	lbu	a2,1(s1)
8000299c:	00148513          	addi	a0,s1,1
800029a0:	fff00713          	li	a4,-1
800029a4:	00050693          	mv	a3,a0
800029a8:	00070c93          	mv	s9,a4
800029ac:	02000d13          	li	s10,32
800029b0:	00000893          	li	a7,0
800029b4:	fdd60793          	addi	a5,a2,-35
800029b8:	0ff7f793          	zext.b	a5,a5
800029bc:	05500593          	li	a1,85
800029c0:	00168493          	addi	s1,a3,1
800029c4:	06f5ea63          	bltu	a1,a5,80002a38 <vprintfmt.constprop.1+0x108>
800029c8:	00003597          	auipc	a1,0x3
800029cc:	ccc58593          	addi	a1,a1,-820 # 80005694 <main+0x1f8>
800029d0:	00279793          	slli	a5,a5,0x2
800029d4:	00b787b3          	add	a5,a5,a1
800029d8:	0007a783          	lw	a5,0(a5)
800029dc:	00b787b3          	add	a5,a5,a1
800029e0:	00078067          	jr	a5
800029e4:	14c12083          	lw	ra,332(sp)
800029e8:	14812403          	lw	s0,328(sp)
800029ec:	14412483          	lw	s1,324(sp)
800029f0:	14012903          	lw	s2,320(sp)
800029f4:	13c12983          	lw	s3,316(sp)
800029f8:	13412a83          	lw	s5,308(sp)
800029fc:	13012b03          	lw	s6,304(sp)
80002a00:	12812c03          	lw	s8,296(sp)
80002a04:	12412c83          	lw	s9,292(sp)
80002a08:	12012d03          	lw	s10,288(sp)
80002a0c:	11c12d83          	lw	s11,284(sp)
80002a10:	15010113          	addi	sp,sp,336
80002a14:	00008067          	ret
80002a18:	00060d13          	mv	s10,a2
80002a1c:	0016c603          	lbu	a2,1(a3)
80002a20:	05500593          	li	a1,85
80002a24:	00048693          	mv	a3,s1
80002a28:	fdd60793          	addi	a5,a2,-35
80002a2c:	0ff7f793          	zext.b	a5,a5
80002a30:	00168493          	addi	s1,a3,1
80002a34:	f8f5fae3          	bgeu	a1,a5,800029c8 <vprintfmt.constprop.1+0x98>
80002a38:	00042783          	lw	a5,0(s0)
80002a3c:	02500713          	li	a4,37
80002a40:	00050493          	mv	s1,a0
80002a44:	00e78023          	sb	a4,0(a5)
80002a48:	00042783          	lw	a5,0(s0)
80002a4c:	00178793          	addi	a5,a5,1
80002a50:	00f42023          	sw	a5,0(s0)
80002a54:	f3dff06f          	j	80002990 <vprintfmt.constprop.1+0x60>
80002a58:	0016c583          	lbu	a1,1(a3)
80002a5c:	00900313          	li	t1,9
80002a60:	fd060713          	addi	a4,a2,-48
80002a64:	fd058793          	addi	a5,a1,-48
80002a68:	00058613          	mv	a2,a1
80002a6c:	00048693          	mv	a3,s1
80002a70:	02f36663          	bltu	t1,a5,80002a9c <vprintfmt.constprop.1+0x16c>
80002a74:	00271793          	slli	a5,a4,0x2
80002a78:	00e787b3          	add	a5,a5,a4
80002a7c:	00168693          	addi	a3,a3,1
80002a80:	00179793          	slli	a5,a5,0x1
80002a84:	00b787b3          	add	a5,a5,a1
80002a88:	0006c583          	lbu	a1,0(a3)
80002a8c:	fd078713          	addi	a4,a5,-48
80002a90:	fd058793          	addi	a5,a1,-48
80002a94:	00058613          	mv	a2,a1
80002a98:	fcf37ee3          	bgeu	t1,a5,80002a74 <vprintfmt.constprop.1+0x144>
80002a9c:	f00cdce3          	bgez	s9,800029b4 <vprintfmt.constprop.1+0x84>
80002aa0:	00070c93          	mv	s9,a4
80002aa4:	fff00713          	li	a4,-1
80002aa8:	f0dff06f          	j	800029b4 <vprintfmt.constprop.1+0x84>
80002aac:	0016c603          	lbu	a2,1(a3)
80002ab0:	00048693          	mv	a3,s1
80002ab4:	f01ff06f          	j	800029b4 <vprintfmt.constprop.1+0x84>
80002ab8:	00042783          	lw	a5,0(s0)
80002abc:	02500713          	li	a4,37
80002ac0:	00e78023          	sb	a4,0(a5)
80002ac4:	00042783          	lw	a5,0(s0)
80002ac8:	00178793          	addi	a5,a5,1
80002acc:	00f42023          	sw	a5,0(s0)
80002ad0:	ec1ff06f          	j	80002990 <vprintfmt.constprop.1+0x60>
80002ad4:	00c12783          	lw	a5,12(sp)
80002ad8:	0016c603          	lbu	a2,1(a3)
80002adc:	00048693          	mv	a3,s1
80002ae0:	0007a703          	lw	a4,0(a5)
80002ae4:	00478793          	addi	a5,a5,4
80002ae8:	00f12623          	sw	a5,12(sp)
80002aec:	fb1ff06f          	j	80002a9c <vprintfmt.constprop.1+0x16c>
80002af0:	00042783          	lw	a5,0(s0)
80002af4:	13412c23          	sw	s4,312(sp)
80002af8:	03000693          	li	a3,48
80002afc:	00d78023          	sb	a3,0(a5)
80002b00:	00042783          	lw	a5,0(s0)
80002b04:	07800713          	li	a4,120
80002b08:	01000a93          	li	s5,16
80002b0c:	00178693          	addi	a3,a5,1
80002b10:	00d42023          	sw	a3,0(s0)
80002b14:	00e780a3          	sb	a4,1(a5)
80002b18:	00042783          	lw	a5,0(s0)
80002b1c:	00c12703          	lw	a4,12(sp)
80002b20:	00000d93          	li	s11,0
80002b24:	00178b13          	addi	s6,a5,1
80002b28:	00470693          	addi	a3,a4,4
80002b2c:	01642023          	sw	s6,0(s0)
80002b30:	00c12783          	lw	a5,12(sp)
80002b34:	00000993          	li	s3,0
80002b38:	0007a903          	lw	s2,0(a5)
80002b3c:	00d12623          	sw	a3,12(sp)
80002b40:	000a8613          	mv	a2,s5
80002b44:	00000693          	li	a3,0
80002b48:	00090513          	mv	a0,s2
80002b4c:	00098593          	mv	a1,s3
80002b50:	56c020ef          	jal	800050bc <__umoddi3>
80002b54:	00a12823          	sw	a0,16(sp)
80002b58:	313d8263          	beq	s11,s3,80002e5c <vprintfmt.constprop.1+0x52c>
80002b5c:	13712623          	sw	s7,300(sp)
80002b60:	00100a13          	li	s4,1
80002b64:	01410b93          	addi	s7,sp,20
80002b68:	00090513          	mv	a0,s2
80002b6c:	00098593          	mv	a1,s3
80002b70:	000a8613          	mv	a2,s5
80002b74:	00000693          	li	a3,0
80002b78:	118020ef          	jal	80004c90 <__udivdi3>
80002b7c:	000a8613          	mv	a2,s5
80002b80:	00000693          	li	a3,0
80002b84:	01412423          	sw	s4,8(sp)
80002b88:	00050913          	mv	s2,a0
80002b8c:	00058993          	mv	s3,a1
80002b90:	52c020ef          	jal	800050bc <__umoddi3>
80002b94:	00aba023          	sw	a0,0(s7)
80002b98:	001a0a13          	addi	s4,s4,1
80002b9c:	004b8b93          	addi	s7,s7,4
80002ba0:	fd3d94e3          	bne	s11,s3,80002b68 <vprintfmt.constprop.1+0x238>
80002ba4:	fd5972e3          	bgeu	s2,s5,80002b68 <vprintfmt.constprop.1+0x238>
80002ba8:	12c12b83          	lw	s7,300(sp)
80002bac:	fffc8713          	addi	a4,s9,-1
80002bb0:	fffa0693          	addi	a3,s4,-1
80002bb4:	019a5e63          	bge	s4,s9,80002bd0 <vprintfmt.constprop.1+0x2a0>
80002bb8:	01ab0023          	sb	s10,0(s6)
80002bbc:	00042783          	lw	a5,0(s0)
80002bc0:	fff70713          	addi	a4,a4,-1
80002bc4:	00178b13          	addi	s6,a5,1
80002bc8:	01642023          	sw	s6,0(s0)
80002bcc:	fed716e3          	bne	a4,a3,80002bb8 <vprintfmt.constprop.1+0x288>
80002bd0:	00812783          	lw	a5,8(sp)
80002bd4:	01010693          	addi	a3,sp,16
80002bd8:	00900613          	li	a2,9
80002bdc:	00279993          	slli	s3,a5,0x2
80002be0:	013689b3          	add	s3,a3,s3
80002be4:	0240006f          	j	80002c08 <vprintfmt.constprop.1+0x2d8>
80002be8:	05770713          	addi	a4,a4,87
80002bec:	00eb0023          	sb	a4,0(s6)
80002bf0:	00042783          	lw	a5,0(s0)
80002bf4:	ffc98713          	addi	a4,s3,-4
80002bf8:	00178b13          	addi	s6,a5,1
80002bfc:	01642023          	sw	s6,0(s0)
80002c00:	03368663          	beq	a3,s3,80002c2c <vprintfmt.constprop.1+0x2fc>
80002c04:	00070993          	mv	s3,a4
80002c08:	0009a703          	lw	a4,0(s3)
80002c0c:	fce66ee3          	bltu	a2,a4,80002be8 <vprintfmt.constprop.1+0x2b8>
80002c10:	03070713          	addi	a4,a4,48
80002c14:	00eb0023          	sb	a4,0(s6)
80002c18:	00042783          	lw	a5,0(s0)
80002c1c:	ffc98713          	addi	a4,s3,-4
80002c20:	00178b13          	addi	s6,a5,1
80002c24:	01642023          	sw	s6,0(s0)
80002c28:	fd369ee3          	bne	a3,s3,80002c04 <vprintfmt.constprop.1+0x2d4>
80002c2c:	13812a03          	lw	s4,312(sp)
80002c30:	d61ff06f          	j	80002990 <vprintfmt.constprop.1+0x60>
80002c34:	13412c23          	sw	s4,312(sp)
80002c38:	00100793          	li	a5,1
80002c3c:	2317c863          	blt	a5,a7,80002e6c <vprintfmt.constprop.1+0x53c>
80002c40:	00c12783          	lw	a5,12(sp)
80002c44:	0007a903          	lw	s2,0(a5)
80002c48:	00478793          	addi	a5,a5,4
80002c4c:	00f12623          	sw	a5,12(sp)
80002c50:	41f95713          	srai	a4,s2,0x1f
80002c54:	00042b03          	lw	s6,0(s0)
80002c58:	24074a63          	bltz	a4,80002eac <vprintfmt.constprop.1+0x57c>
80002c5c:	00070993          	mv	s3,a4
80002c60:	00a00a93          	li	s5,10
80002c64:	00000d93          	li	s11,0
80002c68:	ed9ff06f          	j	80002b40 <vprintfmt.constprop.1+0x210>
80002c6c:	0016c603          	lbu	a2,1(a3)
80002c70:	00188893          	addi	a7,a7,1
80002c74:	00048693          	mv	a3,s1
80002c78:	d3dff06f          	j	800029b4 <vprintfmt.constprop.1+0x84>
80002c7c:	13412c23          	sw	s4,312(sp)
80002c80:	01000a93          	li	s5,16
80002c84:	00000d93          	li	s11,0
80002c88:	00100713          	li	a4,1
80002c8c:	00042b03          	lw	s6,0(s0)
80002c90:	00c12783          	lw	a5,12(sp)
80002c94:	1b174663          	blt	a4,a7,80002e40 <vprintfmt.constprop.1+0x510>
80002c98:	00478693          	addi	a3,a5,4
80002c9c:	e8089ae3          	bnez	a7,80002b30 <vprintfmt.constprop.1+0x200>
80002ca0:	0007a903          	lw	s2,0(a5)
80002ca4:	00000993          	li	s3,0
80002ca8:	00d12623          	sw	a3,12(sp)
80002cac:	e95ff06f          	j	80002b40 <vprintfmt.constprop.1+0x210>
80002cb0:	00c12783          	lw	a5,12(sp)
80002cb4:	0007a683          	lw	a3,0(a5)
80002cb8:	00068e63          	beqz	a3,80002cd4 <vprintfmt.constprop.1+0x3a4>
80002cbc:	09905263          	blez	s9,80002d40 <vprintfmt.constprop.1+0x410>
80002cc0:	02d00793          	li	a5,45
80002cc4:	02fd1a63          	bne	s10,a5,80002cf8 <vprintfmt.constprop.1+0x3c8>
80002cc8:	0006c783          	lbu	a5,0(a3)
80002ccc:	06079e63          	bnez	a5,80002d48 <vprintfmt.constprop.1+0x418>
80002cd0:	0d00006f          	j	80002da0 <vprintfmt.constprop.1+0x470>
80002cd4:	00003697          	auipc	a3,0x3
80002cd8:	97c68693          	addi	a3,a3,-1668 # 80005650 <main+0x1b4>
80002cdc:	02800793          	li	a5,40
80002ce0:	07905463          	blez	s9,80002d48 <vprintfmt.constprop.1+0x418>
80002ce4:	02d00613          	li	a2,45
80002ce8:	00003697          	auipc	a3,0x3
80002cec:	96868693          	addi	a3,a3,-1688 # 80005650 <main+0x1b4>
80002cf0:	02800793          	li	a5,40
80002cf4:	04cd0a63          	beq	s10,a2,80002d48 <vprintfmt.constprop.1+0x418>
80002cf8:	00068793          	mv	a5,a3
80002cfc:	00e685b3          	add	a1,a3,a4
80002d00:	00071863          	bnez	a4,80002d10 <vprintfmt.constprop.1+0x3e0>
80002d04:	0200006f          	j	80002d24 <vprintfmt.constprop.1+0x3f4>
80002d08:	00178793          	addi	a5,a5,1
80002d0c:	00b78663          	beq	a5,a1,80002d18 <vprintfmt.constprop.1+0x3e8>
80002d10:	0007c603          	lbu	a2,0(a5)
80002d14:	fe061ae3          	bnez	a2,80002d08 <vprintfmt.constprop.1+0x3d8>
80002d18:	40d787b3          	sub	a5,a5,a3
80002d1c:	40fc8cb3          	sub	s9,s9,a5
80002d20:	03905063          	blez	s9,80002d40 <vprintfmt.constprop.1+0x410>
80002d24:	00042783          	lw	a5,0(s0)
80002d28:	01a78023          	sb	s10,0(a5)
80002d2c:	00042783          	lw	a5,0(s0)
80002d30:	fffc8c93          	addi	s9,s9,-1
80002d34:	00178793          	addi	a5,a5,1
80002d38:	00f42023          	sw	a5,0(s0)
80002d3c:	fe0c96e3          	bnez	s9,80002d28 <vprintfmt.constprop.1+0x3f8>
80002d40:	0006c783          	lbu	a5,0(a3)
80002d44:	06078e63          	beqz	a5,80002dc0 <vprintfmt.constprop.1+0x490>
80002d48:	fff00593          	li	a1,-1
80002d4c:	08075263          	bgez	a4,80002dd0 <vprintfmt.constprop.1+0x4a0>
80002d50:	00042703          	lw	a4,0(s0)
80002d54:	00168613          	addi	a2,a3,1
80002d58:	fffc8c93          	addi	s9,s9,-1
80002d5c:	00f70023          	sb	a5,0(a4)
80002d60:	00042783          	lw	a5,0(s0)
80002d64:	00060713          	mv	a4,a2
80002d68:	00178793          	addi	a5,a5,1
80002d6c:	00f42023          	sw	a5,0(s0)
80002d70:	0016c683          	lbu	a3,1(a3)
80002d74:	02068463          	beqz	a3,80002d9c <vprintfmt.constprop.1+0x46c>
80002d78:	00d78023          	sb	a3,0(a5)
80002d7c:	00042783          	lw	a5,0(s0)
80002d80:	00170713          	addi	a4,a4,1
80002d84:	00178793          	addi	a5,a5,1
80002d88:	00f42023          	sw	a5,0(s0)
80002d8c:	00074683          	lbu	a3,0(a4)
80002d90:	fe0694e3          	bnez	a3,80002d78 <vprintfmt.constprop.1+0x448>
80002d94:	40e60633          	sub	a2,a2,a4
80002d98:	01960cb3          	add	s9,a2,s9
80002d9c:	03905263          	blez	s9,80002dc0 <vprintfmt.constprop.1+0x490>
80002da0:	00042783          	lw	a5,0(s0)
80002da4:	02000713          	li	a4,32
80002da8:	00e78023          	sb	a4,0(a5)
80002dac:	00042783          	lw	a5,0(s0)
80002db0:	fffc8c93          	addi	s9,s9,-1
80002db4:	00178793          	addi	a5,a5,1
80002db8:	00f42023          	sw	a5,0(s0)
80002dbc:	fe0c96e3          	bnez	s9,80002da8 <vprintfmt.constprop.1+0x478>
80002dc0:	00c12783          	lw	a5,12(sp)
80002dc4:	00478793          	addi	a5,a5,4
80002dc8:	00f12623          	sw	a5,12(sp)
80002dcc:	bc5ff06f          	j	80002990 <vprintfmt.constprop.1+0x60>
80002dd0:	fff70713          	addi	a4,a4,-1
80002dd4:	fcb704e3          	beq	a4,a1,80002d9c <vprintfmt.constprop.1+0x46c>
80002dd8:	00042603          	lw	a2,0(s0)
80002ddc:	00168693          	addi	a3,a3,1
80002de0:	fffc8c93          	addi	s9,s9,-1
80002de4:	00f60023          	sb	a5,0(a2)
80002de8:	00042783          	lw	a5,0(s0)
80002dec:	00178793          	addi	a5,a5,1
80002df0:	00f42023          	sw	a5,0(s0)
80002df4:	0006c783          	lbu	a5,0(a3)
80002df8:	fc079ce3          	bnez	a5,80002dd0 <vprintfmt.constprop.1+0x4a0>
80002dfc:	fa1ff06f          	j	80002d9c <vprintfmt.constprop.1+0x46c>
80002e00:	fffcc793          	not	a5,s9
80002e04:	41f7d793          	srai	a5,a5,0x1f
80002e08:	0016c603          	lbu	a2,1(a3)
80002e0c:	00fcfcb3          	and	s9,s9,a5
80002e10:	00048693          	mv	a3,s1
80002e14:	ba1ff06f          	j	800029b4 <vprintfmt.constprop.1+0x84>
80002e18:	00c12683          	lw	a3,12(sp)
80002e1c:	00042783          	lw	a5,0(s0)
80002e20:	0006a703          	lw	a4,0(a3)
80002e24:	00468693          	addi	a3,a3,4
80002e28:	00d12623          	sw	a3,12(sp)
80002e2c:	00e78023          	sb	a4,0(a5)
80002e30:	00042783          	lw	a5,0(s0)
80002e34:	00178793          	addi	a5,a5,1
80002e38:	00f42023          	sw	a5,0(s0)
80002e3c:	b55ff06f          	j	80002990 <vprintfmt.constprop.1+0x60>
80002e40:	00778713          	addi	a4,a5,7
80002e44:	ff877713          	andi	a4,a4,-8
80002e48:	00870793          	addi	a5,a4,8
80002e4c:	00072903          	lw	s2,0(a4)
80002e50:	00472983          	lw	s3,4(a4)
80002e54:	00f12623          	sw	a5,12(sp)
80002e58:	ce9ff06f          	j	80002b40 <vprintfmt.constprop.1+0x210>
80002e5c:	d15970e3          	bgeu	s2,s5,80002b5c <vprintfmt.constprop.1+0x22c>
80002e60:	00012423          	sw	zero,8(sp)
80002e64:	00100a13          	li	s4,1
80002e68:	d45ff06f          	j	80002bac <vprintfmt.constprop.1+0x27c>
80002e6c:	00c12783          	lw	a5,12(sp)
80002e70:	00778793          	addi	a5,a5,7
80002e74:	ff87f793          	andi	a5,a5,-8
80002e78:	00878713          	addi	a4,a5,8
80002e7c:	00e12623          	sw	a4,12(sp)
80002e80:	0007a903          	lw	s2,0(a5)
80002e84:	0047a703          	lw	a4,4(a5)
80002e88:	dcdff06f          	j	80002c54 <vprintfmt.constprop.1+0x324>
80002e8c:	13412c23          	sw	s4,312(sp)
80002e90:	00a00a93          	li	s5,10
80002e94:	00000d93          	li	s11,0
80002e98:	df1ff06f          	j	80002c88 <vprintfmt.constprop.1+0x358>
80002e9c:	13412c23          	sw	s4,312(sp)
80002ea0:	00800a93          	li	s5,8
80002ea4:	00000d93          	li	s11,0
80002ea8:	de1ff06f          	j	80002c88 <vprintfmt.constprop.1+0x358>
80002eac:	02d00693          	li	a3,45
80002eb0:	00db0023          	sb	a3,0(s6)
80002eb4:	00042783          	lw	a5,0(s0)
80002eb8:	012036b3          	snez	a3,s2
80002ebc:	40e00733          	neg	a4,a4
80002ec0:	00178b13          	addi	s6,a5,1
80002ec4:	40d709b3          	sub	s3,a4,a3
80002ec8:	41200933          	neg	s2,s2
80002ecc:	01642023          	sw	s6,0(s0)
80002ed0:	00a00a93          	li	s5,10
80002ed4:	00000d93          	li	s11,0
80002ed8:	c69ff06f          	j	80002b40 <vprintfmt.constprop.1+0x210>

80002edc <vprintfmt.constprop.0>:
80002edc:	a5010113          	addi	sp,sp,-1456
80002ee0:	5a912223          	sw	s1,1444(sp)
80002ee4:	59a12023          	sw	s10,1408(sp)
80002ee8:	57b12e23          	sw	s11,1404(sp)
80002eec:	04000d93          	li	s11,64
80002ef0:	26f10493          	addi	s1,sp,623
80002ef4:	fc04f493          	andi	s1,s1,-64
80002ef8:	59312e23          	sw	s3,1436(sp)
80002efc:	000d0e13          	mv	t3,s10
80002f00:	01b12223          	sw	s11,4(sp)
80002f04:	01012d03          	lw	s10,16(sp)
80002f08:	01412d83          	lw	s11,20(sp)
80002f0c:	2c048713          	addi	a4,s1,704
80002f10:	5a812423          	sw	s0,1448(sp)
80002f14:	59512a23          	sw	s5,1428(sp)
80002f18:	59912223          	sw	s9,1412(sp)
80002f1c:	5a112623          	sw	ra,1452(sp)
80002f20:	5b212023          	sw	s2,1440(sp)
80002f24:	59412c23          	sw	s4,1432(sp)
80002f28:	59612823          	sw	s6,1424(sp)
80002f2c:	59712623          	sw	s7,1420(sp)
80002f30:	02b12423          	sw	a1,40(sp)
80002f34:	02e12623          	sw	a4,44(sp)
80002f38:	02500a93          	li	s5,37
80002f3c:	00a00c93          	li	s9,10
80002f40:	ffffe417          	auipc	s0,0xffffe
80002f44:	10040413          	addi	s0,s0,256 # 80001040 <fromhost>
80002f48:	00048813          	mv	a6,s1
80002f4c:	00050893          	mv	a7,a0
80002f50:	00098313          	mv	t1,s3
80002f54:	0008c703          	lbu	a4,0(a7)
80002f58:	05570e63          	beq	a4,s5,80002fb4 <vprintfmt.constprop.0+0xd8>
80002f5c:	01812b03          	lw	s6,24(sp)
80002f60:	01c12b83          	lw	s7,28(sp)
80002f64:	02012903          	lw	s2,32(sp)
80002f68:	02412983          	lw	s3,36(sp)
80002f6c:	02c12583          	lw	a1,44(sp)
80002f70:	12070263          	beqz	a4,80003094 <vprintfmt.constprop.0+0x1b8>
80002f74:	04022603          	lw	a2,64(tp) # 40 <buflen.1>
80002f78:	00020793          	mv	a5,tp
80002f7c:	00188893          	addi	a7,a7,1
80002f80:	00160693          	addi	a3,a2,1
80002f84:	00c787b3          	add	a5,a5,a2
80002f88:	04d22023          	sw	a3,64(tp) # 40 <buflen.1>
80002f8c:	00e78023          	sb	a4,0(a5)
80002f90:	07970a63          	beq	a4,s9,80003004 <vprintfmt.constprop.0+0x128>
80002f94:	00412783          	lw	a5,4(sp)
80002f98:	06f68663          	beq	a3,a5,80003004 <vprintfmt.constprop.0+0x128>
80002f9c:	0008c703          	lbu	a4,0(a7)
80002fa0:	fd5718e3          	bne	a4,s5,80002f70 <vprintfmt.constprop.0+0x94>
80002fa4:	01612c23          	sw	s6,24(sp)
80002fa8:	01712e23          	sw	s7,28(sp)
80002fac:	03212023          	sw	s2,32(sp)
80002fb0:	03312223          	sw	s3,36(sp)
80002fb4:	0018c603          	lbu	a2,1(a7)
80002fb8:	00188f93          	addi	t6,a7,1
80002fbc:	fff00793          	li	a5,-1
80002fc0:	02000593          	li	a1,32
80002fc4:	000f8693          	mv	a3,t6
80002fc8:	00078713          	mv	a4,a5
80002fcc:	02b12a23          	sw	a1,52(sp)
80002fd0:	00000293          	li	t0,0
80002fd4:	05500e93          	li	t4,85
80002fd8:	00003517          	auipc	a0,0x3
80002fdc:	81450513          	addi	a0,a0,-2028 # 800057ec <main+0x350>
80002fe0:	fdd60593          	addi	a1,a2,-35
80002fe4:	0ff5f593          	zext.b	a1,a1
80002fe8:	00168893          	addi	a7,a3,1
80002fec:	0ebeee63          	bltu	t4,a1,800030e8 <vprintfmt.constprop.0+0x20c>
80002ff0:	00259593          	slli	a1,a1,0x2
80002ff4:	00a585b3          	add	a1,a1,a0
80002ff8:	0005a583          	lw	a1,0(a1)
80002ffc:	00a585b3          	add	a1,a1,a0
80003000:	00058067          	jr	a1
80003004:	04000713          	li	a4,64
80003008:	2ce82023          	sw	a4,704(a6)
8000300c:	00000793          	li	a5,0
80003010:	2cf82223          	sw	a5,708(a6)
80003014:	00100713          	li	a4,1
80003018:	2ce82423          	sw	a4,712(a6)
8000301c:	00000793          	li	a5,0
80003020:	2cf82623          	sw	a5,716(a6)
80003024:	00020d13          	mv	s10,tp
80003028:	2da82823          	sw	s10,720(a6)
8000302c:	00000d93          	li	s11,0
80003030:	2db82a23          	sw	s11,724(a6)
80003034:	2cd82c23          	sw	a3,728(a6)
80003038:	41f6db93          	srai	s7,a3,0x1f
8000303c:	2d782e23          	sw	s7,732(a6)
80003040:	00068b13          	mv	s6,a3
80003044:	0330000f          	fence	rw,rw
80003048:	ffffe797          	auipc	a5,0xffffe
8000304c:	fb878793          	addi	a5,a5,-72 # 80001000 <tohost>
80003050:	00000993          	li	s3,0
80003054:	00b7a023          	sw	a1,0(a5)
80003058:	00058913          	mv	s2,a1
8000305c:	0137a223          	sw	s3,4(a5)
80003060:	00042703          	lw	a4,0(s0)
80003064:	00442783          	lw	a5,4(s0)
80003068:	00f76733          	or	a4,a4,a5
8000306c:	fe070ae3          	beqz	a4,80003060 <vprintfmt.constprop.0+0x184>
80003070:	00000713          	li	a4,0
80003074:	00e42023          	sw	a4,0(s0)
80003078:	00000793          	li	a5,0
8000307c:	00f42223          	sw	a5,4(s0)
80003080:	0330000f          	fence	rw,rw
80003084:	2c082703          	lw	a4,704(a6)
80003088:	04022023          	sw	zero,64(tp) # 40 <buflen.1>
8000308c:	2c482783          	lw	a5,708(a6)
80003090:	f0dff06f          	j	80002f9c <vprintfmt.constprop.0+0xc0>
80003094:	5ac12083          	lw	ra,1452(sp)
80003098:	5a812403          	lw	s0,1448(sp)
8000309c:	5a412483          	lw	s1,1444(sp)
800030a0:	5a012903          	lw	s2,1440(sp)
800030a4:	59c12983          	lw	s3,1436(sp)
800030a8:	59812a03          	lw	s4,1432(sp)
800030ac:	59412a83          	lw	s5,1428(sp)
800030b0:	59012b03          	lw	s6,1424(sp)
800030b4:	58c12b83          	lw	s7,1420(sp)
800030b8:	58412c83          	lw	s9,1412(sp)
800030bc:	58012d03          	lw	s10,1408(sp)
800030c0:	57c12d83          	lw	s11,1404(sp)
800030c4:	5b010113          	addi	sp,sp,1456
800030c8:	00008067          	ret
800030cc:	02c12a23          	sw	a2,52(sp)
800030d0:	0016c603          	lbu	a2,1(a3)
800030d4:	00088693          	mv	a3,a7
800030d8:	00168893          	addi	a7,a3,1
800030dc:	fdd60593          	addi	a1,a2,-35
800030e0:	0ff5f593          	zext.b	a1,a1
800030e4:	f0bef6e3          	bgeu	t4,a1,80002ff0 <vprintfmt.constprop.0+0x114>
800030e8:	04022603          	lw	a2,64(tp) # 40 <buflen.1>
800030ec:	02f12823          	sw	a5,48(sp)
800030f0:	00020793          	mv	a5,tp
800030f4:	00c787b3          	add	a5,a5,a2
800030f8:	00160713          	addi	a4,a2,1
800030fc:	02500613          	li	a2,37
80003100:	00c78023          	sb	a2,0(a5)
80003104:	04e22023          	sw	a4,64(tp) # 40 <buflen.1>
80003108:	04000793          	li	a5,64
8000310c:	14f70ee3          	beq	a4,a5,80003a68 <vprintfmt.constprop.0+0xb8c>
80003110:	000f8893          	mv	a7,t6
80003114:	e41ff06f          	j	80002f54 <vprintfmt.constprop.0+0x78>
80003118:	0016c583          	lbu	a1,1(a3)
8000311c:	00900f13          	li	t5,9
80003120:	fd060793          	addi	a5,a2,-48
80003124:	fd058693          	addi	a3,a1,-48
80003128:	00058613          	mv	a2,a1
8000312c:	00df7463          	bgeu	t5,a3,80003134 <vprintfmt.constprop.0+0x258>
80003130:	04c0106f          	j	8000417c <vprintfmt.constprop.0+0x12a0>
80003134:	00088693          	mv	a3,a7
80003138:	00078893          	mv	a7,a5
8000313c:	00289793          	slli	a5,a7,0x2
80003140:	011787b3          	add	a5,a5,a7
80003144:	00168693          	addi	a3,a3,1
80003148:	00179793          	slli	a5,a5,0x1
8000314c:	00b787b3          	add	a5,a5,a1
80003150:	0006c583          	lbu	a1,0(a3)
80003154:	fd078893          	addi	a7,a5,-48
80003158:	fd058793          	addi	a5,a1,-48
8000315c:	00058613          	mv	a2,a1
80003160:	fcff7ee3          	bgeu	t5,a5,8000313c <vprintfmt.constprop.0+0x260>
80003164:	00088793          	mv	a5,a7
80003168:	e6075ce3          	bgez	a4,80002fe0 <vprintfmt.constprop.0+0x104>
8000316c:	00078713          	mv	a4,a5
80003170:	fff00793          	li	a5,-1
80003174:	e6dff06f          	j	80002fe0 <vprintfmt.constprop.0+0x104>
80003178:	0016c603          	lbu	a2,1(a3)
8000317c:	00088693          	mv	a3,a7
80003180:	e61ff06f          	j	80002fe0 <vprintfmt.constprop.0+0x104>
80003184:	04022603          	lw	a2,64(tp) # 40 <buflen.1>
80003188:	02f12823          	sw	a5,48(sp)
8000318c:	00020793          	mv	a5,tp
80003190:	00c787b3          	add	a5,a5,a2
80003194:	00160713          	addi	a4,a2,1
80003198:	02500613          	li	a2,37
8000319c:	00c78023          	sb	a2,0(a5)
800031a0:	04e22023          	sw	a4,64(tp) # 40 <buflen.1>
800031a4:	04000793          	li	a5,64
800031a8:	daf716e3          	bne	a4,a5,80002f54 <vprintfmt.constprop.0+0x78>
800031ac:	04000713          	li	a4,64
800031b0:	04e82023          	sw	a4,64(a6)
800031b4:	00000793          	li	a5,0
800031b8:	00020693          	mv	a3,tp
800031bc:	04f82223          	sw	a5,68(a6)
800031c0:	10d12823          	sw	a3,272(sp)
800031c4:	00100613          	li	a2,1
800031c8:	04c82423          	sw	a2,72(a6)
800031cc:	10012a23          	sw	zero,276(sp)
800031d0:	11012603          	lw	a2,272(sp)
800031d4:	00000693          	li	a3,0
800031d8:	04d82623          	sw	a3,76(a6)
800031dc:	11412683          	lw	a3,276(sp)
800031e0:	04c82823          	sw	a2,80(a6)
800031e4:	04d82a23          	sw	a3,84(a6)
800031e8:	04e82c23          	sw	a4,88(a6)
800031ec:	04f82e23          	sw	a5,92(a6)
800031f0:	0330000f          	fence	rw,rw
800031f4:	04080793          	addi	a5,a6,64
800031f8:	10f12c23          	sw	a5,280(sp)
800031fc:	11812683          	lw	a3,280(sp)
80003200:	10012e23          	sw	zero,284(sp)
80003204:	11c12703          	lw	a4,284(sp)
80003208:	ffffe797          	auipc	a5,0xffffe
8000320c:	df878793          	addi	a5,a5,-520 # 80001000 <tohost>
80003210:	00d7a023          	sw	a3,0(a5)
80003214:	00e7a223          	sw	a4,4(a5)
80003218:	ffffe697          	auipc	a3,0xffffe
8000321c:	e2868693          	addi	a3,a3,-472 # 80001040 <fromhost>
80003220:	0006a703          	lw	a4,0(a3)
80003224:	0046a783          	lw	a5,4(a3)
80003228:	00f76733          	or	a4,a4,a5
8000322c:	fe070ae3          	beqz	a4,80003220 <vprintfmt.constprop.0+0x344>
80003230:	00000713          	li	a4,0
80003234:	00e6a023          	sw	a4,0(a3)
80003238:	00000793          	li	a5,0
8000323c:	00f6a223          	sw	a5,4(a3)
80003240:	0330000f          	fence	rw,rw
80003244:	03012783          	lw	a5,48(sp)
80003248:	04082703          	lw	a4,64(a6)
8000324c:	04022023          	sw	zero,64(tp) # 40 <buflen.1>
80003250:	04482783          	lw	a5,68(a6)
80003254:	d01ff06f          	j	80002f54 <vprintfmt.constprop.0+0x78>
80003258:	02812583          	lw	a1,40(sp)
8000325c:	0016c603          	lbu	a2,1(a3)
80003260:	00088693          	mv	a3,a7
80003264:	0005a783          	lw	a5,0(a1)
80003268:	00458593          	addi	a1,a1,4
8000326c:	02b12423          	sw	a1,40(sp)
80003270:	ef9ff06f          	j	80003168 <vprintfmt.constprop.0+0x28c>
80003274:	02f12823          	sw	a5,48(sp)
80003278:	04022783          	lw	a5,64(tp) # 40 <buflen.1>
8000327c:	00020f13          	mv	t5,tp
80003280:	59812423          	sw	s8,1416(sp)
80003284:	00ff0633          	add	a2,t5,a5
80003288:	04d12823          	sw	a3,80(sp)
8000328c:	03000593          	li	a1,48
80003290:	00178693          	addi	a3,a5,1
80003294:	00b60023          	sb	a1,0(a2)
80003298:	04d22023          	sw	a3,64(tp) # 40 <buflen.1>
8000329c:	04000613          	li	a2,64
800032a0:	42c684e3          	beq	a3,a2,80003ec8 <vprintfmt.constprop.0+0xfec>
800032a4:	00df0f33          	add	t5,t5,a3
800032a8:	00278793          	addi	a5,a5,2
800032ac:	07800693          	li	a3,120
800032b0:	04f22023          	sw	a5,64(tp) # 40 <buflen.1>
800032b4:	00df0023          	sb	a3,0(t5)
800032b8:	78c79263          	bne	a5,a2,80003a3c <vprintfmt.constprop.0+0xb60>
800032bc:	04000613          	li	a2,64
800032c0:	10c82023          	sw	a2,256(a6)
800032c4:	00000693          	li	a3,0
800032c8:	00020793          	mv	a5,tp
800032cc:	10d82223          	sw	a3,260(a6)
800032d0:	0ef12823          	sw	a5,240(sp)
800032d4:	00100513          	li	a0,1
800032d8:	10a82423          	sw	a0,264(a6)
800032dc:	0e012a23          	sw	zero,244(sp)
800032e0:	0f012503          	lw	a0,240(sp)
800032e4:	00000593          	li	a1,0
800032e8:	10b82623          	sw	a1,268(a6)
800032ec:	0f412583          	lw	a1,244(sp)
800032f0:	10a82823          	sw	a0,272(a6)
800032f4:	10b82a23          	sw	a1,276(a6)
800032f8:	10c82c23          	sw	a2,280(a6)
800032fc:	10d82e23          	sw	a3,284(a6)
80003300:	0330000f          	fence	rw,rw
80003304:	10080793          	addi	a5,a6,256
80003308:	10f12423          	sw	a5,264(sp)
8000330c:	10812603          	lw	a2,264(sp)
80003310:	10012623          	sw	zero,268(sp)
80003314:	10c12683          	lw	a3,268(sp)
80003318:	ffffe797          	auipc	a5,0xffffe
8000331c:	ce878793          	addi	a5,a5,-792 # 80001000 <tohost>
80003320:	00c7a023          	sw	a2,0(a5)
80003324:	00d7a223          	sw	a3,4(a5)
80003328:	ffffe697          	auipc	a3,0xffffe
8000332c:	d1868693          	addi	a3,a3,-744 # 80001040 <fromhost>
80003330:	00068793          	mv	a5,a3
80003334:	0007a603          	lw	a2,0(a5)
80003338:	0047a683          	lw	a3,4(a5)
8000333c:	00d66633          	or	a2,a2,a3
80003340:	fe060ae3          	beqz	a2,80003334 <vprintfmt.constprop.0+0x458>
80003344:	00000593          	li	a1,0
80003348:	00b7a023          	sw	a1,0(a5)
8000334c:	00000613          	li	a2,0
80003350:	00c7a223          	sw	a2,4(a5)
80003354:	0330000f          	fence	rw,rw
80003358:	03012783          	lw	a5,48(sp)
8000335c:	10082603          	lw	a2,256(a6)
80003360:	10482683          	lw	a3,260(a6)
80003364:	04022023          	sw	zero,64(tp) # 40 <buflen.1>
80003368:	02812783          	lw	a5,40(sp)
8000336c:	01000613          	li	a2,16
80003370:	00060b13          	mv	s6,a2
80003374:	00478693          	addi	a3,a5,4
80003378:	00012823          	sw	zero,16(sp)
8000337c:	00000793          	li	a5,0
80003380:	6d00006f          	j	80003a50 <vprintfmt.constprop.0+0xb74>
80003384:	59812423          	sw	s8,1416(sp)
80003388:	00100793          	li	a5,1
8000338c:	6857c863          	blt	a5,t0,80003a1c <vprintfmt.constprop.0+0xb40>
80003390:	02812783          	lw	a5,40(sp)
80003394:	0007ae83          	lw	t4,0(a5)
80003398:	00478793          	addi	a5,a5,4
8000339c:	02f12423          	sw	a5,40(sp)
800033a0:	41fedf13          	srai	t5,t4,0x1f
800033a4:	02f12823          	sw	a5,48(sp)
800033a8:	04022783          	lw	a5,64(tp) # 40 <buflen.1>
800033ac:	2c0f46e3          	bltz	t5,80003e78 <vprintfmt.constprop.0+0xf9c>
800033b0:	00a00693          	li	a3,10
800033b4:	00068b13          	mv	s6,a3
800033b8:	000e8913          	mv	s2,t4
800033bc:	000f0a13          	mv	s4,t5
800033c0:	00012823          	sw	zero,16(sp)
800033c4:	04d12823          	sw	a3,80(sp)
800033c8:	00000693          	li	a3,0
800033cc:	000b0613          	mv	a2,s6
800033d0:	00090513          	mv	a0,s2
800033d4:	000a0593          	mv	a1,s4
800033d8:	07c12223          	sw	t3,100(sp)
800033dc:	06612023          	sw	t1,96(sp)
800033e0:	05112e23          	sw	a7,92(sp)
800033e4:	05012c23          	sw	a6,88(sp)
800033e8:	04f12a23          	sw	a5,84(sp)
800033ec:	04e12423          	sw	a4,72(sp)
800033f0:	4cd010ef          	jal	800050bc <__umoddi3>
800033f4:	12a12823          	sw	a0,304(sp)
800033f8:	00000693          	li	a3,0
800033fc:	04812703          	lw	a4,72(sp)
80003400:	05412783          	lw	a5,84(sp)
80003404:	05812803          	lw	a6,88(sp)
80003408:	05c12883          	lw	a7,92(sp)
8000340c:	06012303          	lw	t1,96(sp)
80003410:	06412e03          	lw	t3,100(sp)
80003414:	5f468c63          	beq	a3,s4,80003a0c <vprintfmt.constprop.0+0xb30>
80003418:	13410493          	addi	s1,sp,308
8000341c:	00100c13          	li	s8,1
80003420:	00048b93          	mv	s7,s1
80003424:	05b12623          	sw	s11,76(sp)
80003428:	000a0493          	mv	s1,s4
8000342c:	000c0d93          	mv	s11,s8
80003430:	00070993          	mv	s3,a4
80003434:	05a12423          	sw	s10,72(sp)
80003438:	00078c13          	mv	s8,a5
8000343c:	05112a23          	sw	a7,84(sp)
80003440:	00080a13          	mv	s4,a6
80003444:	04612c23          	sw	t1,88(sp)
80003448:	05c12e23          	sw	t3,92(sp)
8000344c:	00090513          	mv	a0,s2
80003450:	00048593          	mv	a1,s1
80003454:	000b0613          	mv	a2,s6
80003458:	00000693          	li	a3,0
8000345c:	035010ef          	jal	80004c90 <__udivdi3>
80003460:	000b0613          	mv	a2,s6
80003464:	00000693          	li	a3,0
80003468:	00050913          	mv	s2,a0
8000346c:	00058493          	mv	s1,a1
80003470:	44d010ef          	jal	800050bc <__umoddi3>
80003474:	01012783          	lw	a5,16(sp)
80003478:	00aba023          	sw	a0,0(s7)
8000347c:	000d8d13          	mv	s10,s11
80003480:	004b8b93          	addi	s7,s7,4
80003484:	001d8d93          	addi	s11,s11,1
80003488:	fc9792e3          	bne	a5,s1,8000344c <vprintfmt.constprop.0+0x570>
8000348c:	fd6970e3          	bgeu	s2,s6,8000344c <vprintfmt.constprop.0+0x570>
80003490:	000d0e93          	mv	t4,s10
80003494:	000c0793          	mv	a5,s8
80003498:	04812d03          	lw	s10,72(sp)
8000349c:	000d8c13          	mv	s8,s11
800034a0:	05412883          	lw	a7,84(sp)
800034a4:	04c12d83          	lw	s11,76(sp)
800034a8:	05812303          	lw	t1,88(sp)
800034ac:	05c12e03          	lw	t3,92(sp)
800034b0:	00098713          	mv	a4,s3
800034b4:	000a0813          	mv	a6,s4
800034b8:	fff70613          	addi	a2,a4,-1
800034bc:	fffc0f13          	addi	t5,s8,-1
800034c0:	12ec5863          	bge	s8,a4,800035f0 <vprintfmt.constprop.0+0x714>
800034c4:	03012703          	lw	a4,48(sp)
800034c8:	0c080393          	addi	t2,a6,192
800034cc:	00038993          	mv	s3,t2
800034d0:	05012703          	lw	a4,80(sp)
800034d4:	000e0b93          	mv	s7,t3
800034d8:	000c8913          	mv	s2,s9
800034dc:	00030e13          	mv	t3,t1
800034e0:	03412a03          	lw	s4,52(sp)
800034e4:	07012303          	lw	t1,112(sp)
800034e8:	07412383          	lw	t2,116(sp)
800034ec:	06812c03          	lw	s8,104(sp)
800034f0:	06c12c83          	lw	s9,108(sp)
800034f4:	04000f93          	li	t6,64
800034f8:	ffffe297          	auipc	t0,0xffffe
800034fc:	b0828293          	addi	t0,t0,-1272 # 80001000 <tohost>
80003500:	ffffe697          	auipc	a3,0xffffe
80003504:	b4068693          	addi	a3,a3,-1216 # 80001040 <fromhost>
80003508:	00200493          	li	s1,2
8000350c:	00020713          	mv	a4,tp
80003510:	00f70733          	add	a4,a4,a5
80003514:	00178793          	addi	a5,a5,1
80003518:	01470023          	sb	s4,0(a4)
8000351c:	04f22023          	sw	a5,64(tp) # 40 <buflen.1>
80003520:	0bf79663          	bne	a5,t6,800035cc <vprintfmt.constprop.0+0x6f0>
80003524:	04000713          	li	a4,64
80003528:	0ce82023          	sw	a4,192(a6)
8000352c:	00000793          	li	a5,0
80003530:	0cf82223          	sw	a5,196(a6)
80003534:	00100713          	li	a4,1
80003538:	0ce82423          	sw	a4,200(a6)
8000353c:	00000793          	li	a5,0
80003540:	0cf82623          	sw	a5,204(a6)
80003544:	00020c13          	mv	s8,tp
80003548:	0d882823          	sw	s8,208(a6)
8000354c:	00000c93          	li	s9,0
80003550:	0d982a23          	sw	s9,212(a6)
80003554:	04000713          	li	a4,64
80003558:	0ce82c23          	sw	a4,216(a6)
8000355c:	00000793          	li	a5,0
80003560:	0cf82e23          	sw	a5,220(a6)
80003564:	0330000f          	fence	rw,rw
80003568:	00000393          	li	t2,0
8000356c:	0132a023          	sw	s3,0(t0)
80003570:	00098313          	mv	t1,s3
80003574:	0072a223          	sw	t2,4(t0)
80003578:	0006a703          	lw	a4,0(a3)
8000357c:	0046a783          	lw	a5,4(a3)
80003580:	00f76733          	or	a4,a4,a5
80003584:	fe070ae3          	beqz	a4,80003578 <vprintfmt.constprop.0+0x69c>
80003588:	00000713          	li	a4,0
8000358c:	00e6a023          	sw	a4,0(a3)
80003590:	00000793          	li	a5,0
80003594:	00f6a223          	sw	a5,4(a3)
80003598:	0330000f          	fence	rw,rw
8000359c:	0c082703          	lw	a4,192(a6)
800035a0:	0c482783          	lw	a5,196(a6)
800035a4:	04022023          	sw	zero,64(tp) # 40 <buflen.1>
800035a8:	fff60793          	addi	a5,a2,-1
800035ac:	32ff0663          	beq	t5,a5,800038d8 <vprintfmt.constprop.0+0x9fc>
800035b0:	00020793          	mv	a5,tp
800035b4:	ffe60613          	addi	a2,a2,-2
800035b8:	01478023          	sb	s4,0(a5)
800035bc:	34cf0063          	beq	t5,a2,800038fc <vprintfmt.constprop.0+0xa20>
800035c0:	014780a3          	sb	s4,1(a5)
800035c4:	04922023          	sw	s1,64(tp) # 40 <buflen.1>
800035c8:	00200793          	li	a5,2
800035cc:	fff60613          	addi	a2,a2,-1
800035d0:	f2cf1ee3          	bne	t5,a2,8000350c <vprintfmt.constprop.0+0x630>
800035d4:	07912623          	sw	s9,108(sp)
800035d8:	06612823          	sw	t1,112(sp)
800035dc:	07812423          	sw	s8,104(sp)
800035e0:	000e0313          	mv	t1,t3
800035e4:	06712a23          	sw	t2,116(sp)
800035e8:	000b8e13          	mv	t3,s7
800035ec:	00090c93          	mv	s9,s2
800035f0:	05012703          	lw	a4,80(sp)
800035f4:	002e9613          	slli	a2,t4,0x2
800035f8:	ffffe397          	auipc	t2,0xffffe
800035fc:	a0838393          	addi	t2,t2,-1528 # 80001000 <tohost>
80003600:	03012703          	lw	a4,48(sp)
80003604:	13010e93          	addi	t4,sp,304
80003608:	00050a13          	mv	s4,a0
8000360c:	00038913          	mv	s2,t2
80003610:	00058c13          	mv	s8,a1
80003614:	00030993          	mv	s3,t1
80003618:	04012503          	lw	a0,64(sp)
8000361c:	04412583          	lw	a1,68(sp)
80003620:	03812303          	lw	t1,56(sp)
80003624:	03c12383          	lw	t2,60(sp)
80003628:	00ce8633          	add	a2,t4,a2
8000362c:	00900f13          	li	t5,9
80003630:	08080493          	addi	s1,a6,128
80003634:	ffffe697          	auipc	a3,0xffffe
80003638:	a0c68693          	addi	a3,a3,-1524 # 80001040 <fromhost>
8000363c:	04000f93          	li	t6,64
80003640:	00a00293          	li	t0,10
80003644:	01a12823          	sw	s10,16(sp)
80003648:	01b12a23          	sw	s11,20(sp)
8000364c:	0280006f          	j	80003674 <vprintfmt.constprop.0+0x798>
80003650:	03070713          	addi	a4,a4,48
80003654:	00fd87b3          	add	a5,s11,a5
80003658:	05722023          	sw	s7,64(tp) # 40 <buflen.1>
8000365c:	00e78023          	sb	a4,0(a5)
80003660:	000b8793          	mv	a5,s7
80003664:	27fb8063          	beq	s7,t6,800038c4 <vprintfmt.constprop.0+0x9e8>
80003668:	ffc60713          	addi	a4,a2,-4
8000366c:	0cce8463          	beq	t4,a2,80003734 <vprintfmt.constprop.0+0x858>
80003670:	00070613          	mv	a2,a4
80003674:	00062703          	lw	a4,0(a2)
80003678:	00178b93          	addi	s7,a5,1
8000367c:	00020d93          	mv	s11,tp
80003680:	fcef78e3          	bgeu	t5,a4,80003650 <vprintfmt.constprop.0+0x774>
80003684:	05770713          	addi	a4,a4,87
80003688:	00fd87b3          	add	a5,s11,a5
8000368c:	05722023          	sw	s7,64(tp) # 40 <buflen.1>
80003690:	00e78023          	sb	a4,0(a5)
80003694:	fc5716e3          	bne	a4,t0,80003660 <vprintfmt.constprop.0+0x784>
80003698:	41fbd793          	srai	a5,s7,0x1f
8000369c:	01712423          	sw	s7,8(sp)
800036a0:	00f12623          	sw	a5,12(sp)
800036a4:	04000713          	li	a4,64
800036a8:	08e82023          	sw	a4,128(a6)
800036ac:	00000793          	li	a5,0
800036b0:	08f82223          	sw	a5,132(a6)
800036b4:	00100713          	li	a4,1
800036b8:	08e82423          	sw	a4,136(a6)
800036bc:	00000793          	li	a5,0
800036c0:	08f82623          	sw	a5,140(a6)
800036c4:	00812703          	lw	a4,8(sp)
800036c8:	00020313          	mv	t1,tp
800036cc:	08682823          	sw	t1,144(a6)
800036d0:	00c12783          	lw	a5,12(sp)
800036d4:	00000393          	li	t2,0
800036d8:	08782a23          	sw	t2,148(a6)
800036dc:	08e82c23          	sw	a4,152(a6)
800036e0:	08f82e23          	sw	a5,156(a6)
800036e4:	0330000f          	fence	rw,rw
800036e8:	00000593          	li	a1,0
800036ec:	00992023          	sw	s1,0(s2)
800036f0:	00048513          	mv	a0,s1
800036f4:	00b92223          	sw	a1,4(s2)
800036f8:	0006a703          	lw	a4,0(a3)
800036fc:	0046a783          	lw	a5,4(a3)
80003700:	00f76733          	or	a4,a4,a5
80003704:	fe070ae3          	beqz	a4,800036f8 <vprintfmt.constprop.0+0x81c>
80003708:	00000713          	li	a4,0
8000370c:	00e6a023          	sw	a4,0(a3)
80003710:	00000793          	li	a5,0
80003714:	00f6a223          	sw	a5,4(a3)
80003718:	0330000f          	fence	rw,rw
8000371c:	08082703          	lw	a4,128(a6)
80003720:	08482783          	lw	a5,132(a6)
80003724:	04022023          	sw	zero,64(tp) # 40 <buflen.1>
80003728:	00000793          	li	a5,0
8000372c:	ffc60713          	addi	a4,a2,-4
80003730:	f4ce90e3          	bne	t4,a2,80003670 <vprintfmt.constprop.0+0x794>
80003734:	02612c23          	sw	t1,56(sp)
80003738:	01012d03          	lw	s10,16(sp)
8000373c:	01412d83          	lw	s11,20(sp)
80003740:	58812c03          	lw	s8,1416(sp)
80003744:	02712e23          	sw	t2,60(sp)
80003748:	04a12023          	sw	a0,64(sp)
8000374c:	04b12223          	sw	a1,68(sp)
80003750:	00098313          	mv	t1,s3
80003754:	801ff06f          	j	80002f54 <vprintfmt.constprop.0+0x78>
80003758:	0016c603          	lbu	a2,1(a3)
8000375c:	00128293          	addi	t0,t0,1
80003760:	00088693          	mv	a3,a7
80003764:	87dff06f          	j	80002fe0 <vprintfmt.constprop.0+0x104>
80003768:	01000793          	li	a5,16
8000376c:	59812423          	sw	s8,1416(sp)
80003770:	00078b13          	mv	s6,a5
80003774:	00012823          	sw	zero,16(sp)
80003778:	02f12823          	sw	a5,48(sp)
8000377c:	00100693          	li	a3,1
80003780:	04022783          	lw	a5,64(tp) # 40 <buflen.1>
80003784:	1856ce63          	blt	a3,t0,80003920 <vprintfmt.constprop.0+0xa44>
80003788:	02812683          	lw	a3,40(sp)
8000378c:	00468693          	addi	a3,a3,4
80003790:	72029863          	bnez	t0,80003ec0 <vprintfmt.constprop.0+0xfe4>
80003794:	02812603          	lw	a2,40(sp)
80003798:	02d12423          	sw	a3,40(sp)
8000379c:	00062603          	lw	a2,0(a2)
800037a0:	00000a13          	li	s4,0
800037a4:	04d12823          	sw	a3,80(sp)
800037a8:	00060913          	mv	s2,a2
800037ac:	c1dff06f          	j	800033c8 <vprintfmt.constprop.0+0x4ec>
800037b0:	02812683          	lw	a3,40(sp)
800037b4:	59812423          	sw	s8,1416(sp)
800037b8:	0006a503          	lw	a0,0(a3)
800037bc:	00050ae3          	beqz	a0,80003fd0 <vprintfmt.constprop.0+0x10f4>
800037c0:	34e05a63          	blez	a4,80003b14 <vprintfmt.constprop.0+0xc38>
800037c4:	03412603          	lw	a2,52(sp)
800037c8:	02d00693          	li	a3,45
800037cc:	04d61ae3          	bne	a2,a3,80004020 <vprintfmt.constprop.0+0x1144>
800037d0:	00054683          	lbu	a3,0(a0)
800037d4:	00068393          	mv	t2,a3
800037d8:	54068c63          	beqz	a3,80003d30 <vprintfmt.constprop.0+0xe54>
800037dc:	01a12823          	sw	s10,16(sp)
800037e0:	01b12a23          	sw	s11,20(sp)
800037e4:	20080293          	addi	t0,a6,512
800037e8:	00038993          	mv	s3,t2
800037ec:	00080f93          	mv	t6,a6
800037f0:	00088393          	mv	t2,a7
800037f4:	09012803          	lw	a6,144(sp)
800037f8:	09412883          	lw	a7,148(sp)
800037fc:	fff00a13          	li	s4,-1
80003800:	00a00c13          	li	s8,10
80003804:	ffffe597          	auipc	a1,0xffffe
80003808:	83c58593          	addi	a1,a1,-1988 # 80001040 <fromhost>
8000380c:	0407c863          	bltz	a5,8000385c <vprintfmt.constprop.0+0x980>
80003810:	fff78e93          	addi	t4,a5,-1
80003814:	514e8063          	beq	t4,s4,80003d14 <vprintfmt.constprop.0+0xe38>
80003818:	04022d83          	lw	s11,64(tp) # 40 <buflen.1>
8000381c:	00020613          	mv	a2,tp
80003820:	001d8b93          	addi	s7,s11,1
80003824:	01b60633          	add	a2,a2,s11
80003828:	05722023          	sw	s7,64(tp) # 40 <buflen.1>
8000382c:	00d60023          	sb	a3,0(a2)
80003830:	33898663          	beq	s3,s8,80003b5c <vprintfmt.constprop.0+0xc80>
80003834:	04000693          	li	a3,64
80003838:	32db8263          	beq	s7,a3,80003b5c <vprintfmt.constprop.0+0xc80>
8000383c:	00154683          	lbu	a3,1(a0)
80003840:	00150513          	addi	a0,a0,1
80003844:	fff70713          	addi	a4,a4,-1
80003848:	00068993          	mv	s3,a3
8000384c:	4c068463          	beqz	a3,80003d14 <vprintfmt.constprop.0+0xe38>
80003850:	3a07ca63          	bltz	a5,80003c04 <vprintfmt.constprop.0+0xd28>
80003854:	000e8793          	mv	a5,t4
80003858:	fa07dce3          	bgez	a5,80003810 <vprintfmt.constprop.0+0x934>
8000385c:	00078e93          	mv	t4,a5
80003860:	fb9ff06f          	j	80003818 <vprintfmt.constprop.0+0x93c>
80003864:	fff74593          	not	a1,a4
80003868:	41f5d593          	srai	a1,a1,0x1f
8000386c:	0016c603          	lbu	a2,1(a3)
80003870:	00b77733          	and	a4,a4,a1
80003874:	00088693          	mv	a3,a7
80003878:	f68ff06f          	j	80002fe0 <vprintfmt.constprop.0+0x104>
8000387c:	02812703          	lw	a4,40(sp)
80003880:	04022583          	lw	a1,64(tp) # 40 <buflen.1>
80003884:	02f12823          	sw	a5,48(sp)
80003888:	00072683          	lw	a3,0(a4)
8000388c:	04f12823          	sw	a5,80(sp)
80003890:	00020793          	mv	a5,tp
80003894:	00b787b3          	add	a5,a5,a1
80003898:	00158713          	addi	a4,a1,1
8000389c:	00d78023          	sb	a3,0(a5)
800038a0:	04e22023          	sw	a4,64(tp) # 40 <buflen.1>
800038a4:	00a00793          	li	a5,10
800038a8:	0af68063          	beq	a3,a5,80003948 <vprintfmt.constprop.0+0xa6c>
800038ac:	04000793          	li	a5,64
800038b0:	08f70c63          	beq	a4,a5,80003948 <vprintfmt.constprop.0+0xa6c>
800038b4:	02812783          	lw	a5,40(sp)
800038b8:	00478793          	addi	a5,a5,4
800038bc:	02f12423          	sw	a5,40(sp)
800038c0:	e94ff06f          	j	80002f54 <vprintfmt.constprop.0+0x78>
800038c4:	04000713          	li	a4,64
800038c8:	00000793          	li	a5,0
800038cc:	00e12423          	sw	a4,8(sp)
800038d0:	00f12623          	sw	a5,12(sp)
800038d4:	dd1ff06f          	j	800036a4 <vprintfmt.constprop.0+0x7c8>
800038d8:	07912623          	sw	s9,108(sp)
800038dc:	06612823          	sw	t1,112(sp)
800038e0:	07812423          	sw	s8,104(sp)
800038e4:	000e0313          	mv	t1,t3
800038e8:	06712a23          	sw	t2,116(sp)
800038ec:	000b8e13          	mv	t3,s7
800038f0:	00090c93          	mv	s9,s2
800038f4:	00000793          	li	a5,0
800038f8:	cf9ff06f          	j	800035f0 <vprintfmt.constprop.0+0x714>
800038fc:	07912623          	sw	s9,108(sp)
80003900:	06612823          	sw	t1,112(sp)
80003904:	07812423          	sw	s8,104(sp)
80003908:	000e0313          	mv	t1,t3
8000390c:	06712a23          	sw	t2,116(sp)
80003910:	000b8e13          	mv	t3,s7
80003914:	00090c93          	mv	s9,s2
80003918:	00100793          	li	a5,1
8000391c:	cd5ff06f          	j	800035f0 <vprintfmt.constprop.0+0x714>
80003920:	02812683          	lw	a3,40(sp)
80003924:	00768693          	addi	a3,a3,7
80003928:	ff86f693          	andi	a3,a3,-8
8000392c:	00868613          	addi	a2,a3,8
80003930:	02c12423          	sw	a2,40(sp)
80003934:	0006a603          	lw	a2,0(a3)
80003938:	0046aa03          	lw	s4,4(a3)
8000393c:	00060913          	mv	s2,a2
80003940:	04d12823          	sw	a3,80(sp)
80003944:	a85ff06f          	j	800033c8 <vprintfmt.constprop.0+0x4ec>
80003948:	05012783          	lw	a5,80(sp)
8000394c:	04000613          	li	a2,64
80003950:	28c82023          	sw	a2,640(a6)
80003954:	00020793          	mv	a5,tp
80003958:	0cf12023          	sw	a5,192(sp)
8000395c:	00000693          	li	a3,0
80003960:	28d82223          	sw	a3,644(a6)
80003964:	0ce12423          	sw	a4,200(sp)
80003968:	0c012223          	sw	zero,196(sp)
8000396c:	41f75793          	srai	a5,a4,0x1f
80003970:	00100613          	li	a2,1
80003974:	0c012703          	lw	a4,192(sp)
80003978:	28c82423          	sw	a2,648(a6)
8000397c:	0cf12623          	sw	a5,204(sp)
80003980:	00000693          	li	a3,0
80003984:	0c412783          	lw	a5,196(sp)
80003988:	28d82623          	sw	a3,652(a6)
8000398c:	28e82823          	sw	a4,656(a6)
80003990:	0c812703          	lw	a4,200(sp)
80003994:	28f82a23          	sw	a5,660(a6)
80003998:	0cc12783          	lw	a5,204(sp)
8000399c:	28e82c23          	sw	a4,664(a6)
800039a0:	28f82e23          	sw	a5,668(a6)
800039a4:	0330000f          	fence	rw,rw
800039a8:	28080793          	addi	a5,a6,640
800039ac:	0cf12823          	sw	a5,208(sp)
800039b0:	0d012683          	lw	a3,208(sp)
800039b4:	0c012a23          	sw	zero,212(sp)
800039b8:	0d412703          	lw	a4,212(sp)
800039bc:	ffffd797          	auipc	a5,0xffffd
800039c0:	64478793          	addi	a5,a5,1604 # 80001000 <tohost>
800039c4:	00d7a023          	sw	a3,0(a5)
800039c8:	00e7a223          	sw	a4,4(a5)
800039cc:	ffffd697          	auipc	a3,0xffffd
800039d0:	67468693          	addi	a3,a3,1652 # 80001040 <fromhost>
800039d4:	0006a703          	lw	a4,0(a3)
800039d8:	0046a783          	lw	a5,4(a3)
800039dc:	00f76733          	or	a4,a4,a5
800039e0:	fe070ae3          	beqz	a4,800039d4 <vprintfmt.constprop.0+0xaf8>
800039e4:	00000713          	li	a4,0
800039e8:	00e6a023          	sw	a4,0(a3)
800039ec:	00000793          	li	a5,0
800039f0:	00f6a223          	sw	a5,4(a3)
800039f4:	0330000f          	fence	rw,rw
800039f8:	28082703          	lw	a4,640(a6)
800039fc:	28482783          	lw	a5,644(a6)
80003a00:	03012783          	lw	a5,48(sp)
80003a04:	04022023          	sw	zero,64(tp) # 40 <buflen.1>
80003a08:	eadff06f          	j	800038b4 <vprintfmt.constprop.0+0x9d8>
80003a0c:	a16976e3          	bgeu	s2,s6,80003418 <vprintfmt.constprop.0+0x53c>
80003a10:	00000e93          	li	t4,0
80003a14:	00100c13          	li	s8,1
80003a18:	aa1ff06f          	j	800034b8 <vprintfmt.constprop.0+0x5dc>
80003a1c:	02812783          	lw	a5,40(sp)
80003a20:	00778793          	addi	a5,a5,7
80003a24:	ff87f793          	andi	a5,a5,-8
80003a28:	00878693          	addi	a3,a5,8
80003a2c:	0007ae83          	lw	t4,0(a5)
80003a30:	0047af03          	lw	t5,4(a5)
80003a34:	02d12423          	sw	a3,40(sp)
80003a38:	96dff06f          	j	800033a4 <vprintfmt.constprop.0+0x4c8>
80003a3c:	01000693          	li	a3,16
80003a40:	00068b13          	mv	s6,a3
80003a44:	02812683          	lw	a3,40(sp)
80003a48:	00012823          	sw	zero,16(sp)
80003a4c:	00468693          	addi	a3,a3,4
80003a50:	02812603          	lw	a2,40(sp)
80003a54:	00000a13          	li	s4,0
80003a58:	02d12423          	sw	a3,40(sp)
80003a5c:	00062603          	lw	a2,0(a2)
80003a60:	00060913          	mv	s2,a2
80003a64:	965ff06f          	j	800033c8 <vprintfmt.constprop.0+0x4ec>
80003a68:	04000713          	li	a4,64
80003a6c:	00e82023          	sw	a4,0(a6)
80003a70:	00000793          	li	a5,0
80003a74:	00020693          	mv	a3,tp
80003a78:	00f82223          	sw	a5,4(a6)
80003a7c:	12d12023          	sw	a3,288(sp)
80003a80:	00100613          	li	a2,1
80003a84:	00c82423          	sw	a2,8(a6)
80003a88:	12012223          	sw	zero,292(sp)
80003a8c:	12012603          	lw	a2,288(sp)
80003a90:	00000693          	li	a3,0
80003a94:	00d82623          	sw	a3,12(a6)
80003a98:	12412683          	lw	a3,292(sp)
80003a9c:	00c82823          	sw	a2,16(a6)
80003aa0:	00d82a23          	sw	a3,20(a6)
80003aa4:	00e82c23          	sw	a4,24(a6)
80003aa8:	00f82e23          	sw	a5,28(a6)
80003aac:	0330000f          	fence	rw,rw
80003ab0:	13012423          	sw	a6,296(sp)
80003ab4:	12812683          	lw	a3,296(sp)
80003ab8:	12012623          	sw	zero,300(sp)
80003abc:	12c12703          	lw	a4,300(sp)
80003ac0:	ffffd797          	auipc	a5,0xffffd
80003ac4:	54078793          	addi	a5,a5,1344 # 80001000 <tohost>
80003ac8:	00d7a023          	sw	a3,0(a5)
80003acc:	00e7a223          	sw	a4,4(a5)
80003ad0:	ffffd697          	auipc	a3,0xffffd
80003ad4:	57068693          	addi	a3,a3,1392 # 80001040 <fromhost>
80003ad8:	0006a703          	lw	a4,0(a3)
80003adc:	0046a783          	lw	a5,4(a3)
80003ae0:	00f76733          	or	a4,a4,a5
80003ae4:	fe070ae3          	beqz	a4,80003ad8 <vprintfmt.constprop.0+0xbfc>
80003ae8:	00000713          	li	a4,0
80003aec:	00e6a023          	sw	a4,0(a3)
80003af0:	00000793          	li	a5,0
80003af4:	00f6a223          	sw	a5,4(a3)
80003af8:	0330000f          	fence	rw,rw
80003afc:	00082703          	lw	a4,0(a6)
80003b00:	00482783          	lw	a5,4(a6)
80003b04:	03012783          	lw	a5,48(sp)
80003b08:	000f8893          	mv	a7,t6
80003b0c:	04022023          	sw	zero,64(tp) # 40 <buflen.1>
80003b10:	c44ff06f          	j	80002f54 <vprintfmt.constprop.0+0x78>
80003b14:	00054683          	lbu	a3,0(a0)
80003b18:	00068393          	mv	t2,a3
80003b1c:	cc0690e3          	bnez	a3,800037dc <vprintfmt.constprop.0+0x900>
80003b20:	02812783          	lw	a5,40(sp)
80003b24:	58812c03          	lw	s8,1416(sp)
80003b28:	00478793          	addi	a5,a5,4
80003b2c:	02f12423          	sw	a5,40(sp)
80003b30:	c24ff06f          	j	80002f54 <vprintfmt.constprop.0+0x78>
80003b34:	00a00793          	li	a5,10
80003b38:	59812423          	sw	s8,1416(sp)
80003b3c:	00078b13          	mv	s6,a5
80003b40:	00012823          	sw	zero,16(sp)
80003b44:	c35ff06f          	j	80003778 <vprintfmt.constprop.0+0x89c>
80003b48:	00800793          	li	a5,8
80003b4c:	59812423          	sw	s8,1416(sp)
80003b50:	00078b13          	mv	s6,a5
80003b54:	00012823          	sw	zero,16(sp)
80003b58:	c21ff06f          	j	80003778 <vprintfmt.constprop.0+0x89c>
80003b5c:	00020693          	mv	a3,tp
80003b60:	04000613          	li	a2,64
80003b64:	20cfa023          	sw	a2,512(t6)
80003b68:	06d12c23          	sw	a3,120(sp)
80003b6c:	00000693          	li	a3,0
80003b70:	20dfa223          	sw	a3,516(t6)
80003b74:	00100613          	li	a2,1
80003b78:	20cfa423          	sw	a2,520(t6)
80003b7c:	00000693          	li	a3,0
80003b80:	20dfa623          	sw	a3,524(t6)
80003b84:	07812603          	lw	a2,120(sp)
80003b88:	06012e23          	sw	zero,124(sp)
80003b8c:	41fbd693          	srai	a3,s7,0x1f
80003b90:	08d12223          	sw	a3,132(sp)
80003b94:	07c12683          	lw	a3,124(sp)
80003b98:	09712023          	sw	s7,128(sp)
80003b9c:	20cfa823          	sw	a2,528(t6)
80003ba0:	08012603          	lw	a2,128(sp)
80003ba4:	20dfaa23          	sw	a3,532(t6)
80003ba8:	08412683          	lw	a3,132(sp)
80003bac:	20cfac23          	sw	a2,536(t6)
80003bb0:	20dfae23          	sw	a3,540(t6)
80003bb4:	0330000f          	fence	rw,rw
80003bb8:	ffffd697          	auipc	a3,0xffffd
80003bbc:	44868693          	addi	a3,a3,1096 # 80001000 <tohost>
80003bc0:	00000893          	li	a7,0
80003bc4:	0056a023          	sw	t0,0(a3)
80003bc8:	00028813          	mv	a6,t0
80003bcc:	0116a223          	sw	a7,4(a3)
80003bd0:	0005a603          	lw	a2,0(a1)
80003bd4:	0045a683          	lw	a3,4(a1)
80003bd8:	00d66633          	or	a2,a2,a3
80003bdc:	fe060ae3          	beqz	a2,80003bd0 <vprintfmt.constprop.0+0xcf4>
80003be0:	00000613          	li	a2,0
80003be4:	00c5a023          	sw	a2,0(a1)
80003be8:	00000693          	li	a3,0
80003bec:	00d5a223          	sw	a3,4(a1)
80003bf0:	0330000f          	fence	rw,rw
80003bf4:	200fa603          	lw	a2,512(t6)
80003bf8:	04022023          	sw	zero,64(tp) # 40 <buflen.1>
80003bfc:	204fa683          	lw	a3,516(t6)
80003c00:	c3dff06f          	j	8000383c <vprintfmt.constprop.0+0x960>
80003c04:	09012823          	sw	a6,144(sp)
80003c08:	000f8813          	mv	a6,t6
80003c0c:	01012d03          	lw	s10,16(sp)
80003c10:	09112a23          	sw	a7,148(sp)
80003c14:	000f8493          	mv	s1,t6
80003c18:	00038893          	mv	a7,t2
80003c1c:	01912823          	sw	s9,16(sp)
80003c20:	01412d83          	lw	s11,20(sp)
80003c24:	0b812f03          	lw	t5,184(sp)
80003c28:	0bc12f83          	lw	t6,188(sp)
80003c2c:	0b012c03          	lw	s8,176(sp)
80003c30:	0b412c83          	lw	s9,180(sp)
80003c34:	00050793          	mv	a5,a0
80003c38:	00a00293          	li	t0,10
80003c3c:	04000393          	li	t2,64
80003c40:	0100006f          	j	80003c50 <vprintfmt.constprop.0+0xd74>
80003c44:	0017c683          	lbu	a3,1(a5)
80003c48:	00178793          	addi	a5,a5,1
80003c4c:	3a068463          	beqz	a3,80003ff4 <vprintfmt.constprop.0+0x1118>
80003c50:	04022a03          	lw	s4,64(tp) # 40 <buflen.1>
80003c54:	00020613          	mv	a2,tp
80003c58:	001a0593          	addi	a1,s4,1
80003c5c:	01460633          	add	a2,a2,s4
80003c60:	04b22023          	sw	a1,64(tp) # 40 <buflen.1>
80003c64:	00d60023          	sb	a3,0(a2)
80003c68:	00568463          	beq	a3,t0,80003c70 <vprintfmt.constprop.0+0xd94>
80003c6c:	fc759ce3          	bne	a1,t2,80003c44 <vprintfmt.constprop.0+0xd68>
80003c70:	04000613          	li	a2,64
80003c74:	20c82023          	sw	a2,512(a6)
80003c78:	00020f13          	mv	t5,tp
80003c7c:	00000693          	li	a3,0
80003c80:	20d82223          	sw	a3,516(a6)
80003c84:	00100613          	li	a2,1
80003c88:	20c82423          	sw	a2,520(a6)
80003c8c:	00000693          	li	a3,0
80003c90:	20d82623          	sw	a3,524(a6)
80003c94:	08b12423          	sw	a1,136(sp)
80003c98:	41f5d693          	srai	a3,a1,0x1f
80003c9c:	08812603          	lw	a2,136(sp)
80003ca0:	08d12623          	sw	a3,140(sp)
80003ca4:	21e82823          	sw	t5,528(a6)
80003ca8:	08c12683          	lw	a3,140(sp)
80003cac:	00000f93          	li	t6,0
80003cb0:	21f82a23          	sw	t6,532(a6)
80003cb4:	20c82c23          	sw	a2,536(a6)
80003cb8:	20d82e23          	sw	a3,540(a6)
80003cbc:	0330000f          	fence	rw,rw
80003cc0:	ffffd697          	auipc	a3,0xffffd
80003cc4:	34068693          	addi	a3,a3,832 # 80001000 <tohost>
80003cc8:	20080c13          	addi	s8,a6,512
80003ccc:	00000c93          	li	s9,0
80003cd0:	0186a023          	sw	s8,0(a3)
80003cd4:	0196a223          	sw	s9,4(a3)
80003cd8:	ffffd597          	auipc	a1,0xffffd
80003cdc:	36858593          	addi	a1,a1,872 # 80001040 <fromhost>
80003ce0:	0005a603          	lw	a2,0(a1)
80003ce4:	0045a683          	lw	a3,4(a1)
80003ce8:	00d66633          	or	a2,a2,a3
80003cec:	fe060ae3          	beqz	a2,80003ce0 <vprintfmt.constprop.0+0xe04>
80003cf0:	00000613          	li	a2,0
80003cf4:	00c5a023          	sw	a2,0(a1)
80003cf8:	00000693          	li	a3,0
80003cfc:	00d5a223          	sw	a3,4(a1)
80003d00:	0330000f          	fence	rw,rw
80003d04:	20082603          	lw	a2,512(a6)
80003d08:	20482683          	lw	a3,516(a6)
80003d0c:	04022023          	sw	zero,64(tp) # 40 <buflen.1>
80003d10:	f35ff06f          	j	80003c44 <vprintfmt.constprop.0+0xd68>
80003d14:	09012823          	sw	a6,144(sp)
80003d18:	09112a23          	sw	a7,148(sp)
80003d1c:	01012d03          	lw	s10,16(sp)
80003d20:	01412d83          	lw	s11,20(sp)
80003d24:	000f8813          	mv	a6,t6
80003d28:	00038893          	mv	a7,t2
80003d2c:	dee05ae3          	blez	a4,80003b20 <vprintfmt.constprop.0+0xc44>
80003d30:	1c080393          	addi	t2,a6,448
80003d34:	04022683          	lw	a3,64(tp) # 40 <buflen.1>
80003d38:	01b12a23          	sw	s11,20(sp)
80003d3c:	00088993          	mv	s3,a7
80003d40:	00038b93          	mv	s7,t2
80003d44:	00030d93          	mv	s11,t1
80003d48:	000e0913          	mv	s2,t3
80003d4c:	0a012303          	lw	t1,160(sp)
80003d50:	00050e13          	mv	t3,a0
80003d54:	0a412383          	lw	t2,164(sp)
80003d58:	00080513          	mv	a0,a6
80003d5c:	0ac12883          	lw	a7,172(sp)
80003d60:	0a812803          	lw	a6,168(sp)
80003d64:	02f12823          	sw	a5,48(sp)
80003d68:	02000593          	li	a1,32
80003d6c:	04000293          	li	t0,64
80003d70:	04000f13          	li	t5,64
80003d74:	00000f93          	li	t6,0
80003d78:	ffffd497          	auipc	s1,0xffffd
80003d7c:	28848493          	addi	s1,s1,648 # 80001000 <tohost>
80003d80:	ffffd797          	auipc	a5,0xffffd
80003d84:	2c078793          	addi	a5,a5,704 # 80001040 <fromhost>
80003d88:	00100a13          	li	s4,1
80003d8c:	00200c13          	li	s8,2
80003d90:	01a12823          	sw	s10,16(sp)
80003d94:	00020613          	mv	a2,tp
80003d98:	00d60633          	add	a2,a2,a3
80003d9c:	00168693          	addi	a3,a3,1
80003da0:	00b60023          	sb	a1,0(a2)
80003da4:	04d22023          	sw	a3,64(tp) # 40 <buflen.1>
80003da8:	08569e63          	bne	a3,t0,80003e44 <vprintfmt.constprop.0+0xf68>
80003dac:	1de52023          	sw	t5,448(a0)
80003db0:	1df52223          	sw	t6,452(a0)
80003db4:	00100613          	li	a2,1
80003db8:	1cc52423          	sw	a2,456(a0)
80003dbc:	00000693          	li	a3,0
80003dc0:	1cd52623          	sw	a3,460(a0)
80003dc4:	00020313          	mv	t1,tp
80003dc8:	1c652823          	sw	t1,464(a0)
80003dcc:	00000393          	li	t2,0
80003dd0:	1c752a23          	sw	t2,468(a0)
80003dd4:	1de52c23          	sw	t5,472(a0)
80003dd8:	1df52e23          	sw	t6,476(a0)
80003ddc:	0330000f          	fence	rw,rw
80003de0:	00000893          	li	a7,0
80003de4:	0174a023          	sw	s7,0(s1)
80003de8:	000b8813          	mv	a6,s7
80003dec:	0114a223          	sw	a7,4(s1)
80003df0:	0007a603          	lw	a2,0(a5)
80003df4:	0047a683          	lw	a3,4(a5)
80003df8:	00d66633          	or	a2,a2,a3
80003dfc:	fe060ae3          	beqz	a2,80003df0 <vprintfmt.constprop.0+0xf14>
80003e00:	00000613          	li	a2,0
80003e04:	00c7a023          	sw	a2,0(a5)
80003e08:	00000693          	li	a3,0
80003e0c:	00d7a223          	sw	a3,4(a5)
80003e10:	0330000f          	fence	rw,rw
80003e14:	1c052603          	lw	a2,448(a0)
80003e18:	1c452683          	lw	a3,452(a0)
80003e1c:	fff70693          	addi	a3,a4,-1
80003e20:	16068e63          	beqz	a3,80003f9c <vprintfmt.constprop.0+0x10c0>
80003e24:	00020693          	mv	a3,tp
80003e28:	05422023          	sw	s4,64(tp) # 40 <buflen.1>
80003e2c:	ffe70713          	addi	a4,a4,-2
80003e30:	00b68023          	sb	a1,0(a3)
80003e34:	00070c63          	beqz	a4,80003e4c <vprintfmt.constprop.0+0xf70>
80003e38:	00b680a3          	sb	a1,1(a3)
80003e3c:	05822023          	sw	s8,64(tp) # 40 <buflen.1>
80003e40:	00200693          	li	a3,2
80003e44:	fff70713          	addi	a4,a4,-1
80003e48:	f40716e3          	bnez	a4,80003d94 <vprintfmt.constprop.0+0xeb8>
80003e4c:	0a612023          	sw	t1,160(sp)
80003e50:	0b012423          	sw	a6,168(sp)
80003e54:	0b112623          	sw	a7,172(sp)
80003e58:	000d8313          	mv	t1,s11
80003e5c:	01012d03          	lw	s10,16(sp)
80003e60:	01412d83          	lw	s11,20(sp)
80003e64:	0a712223          	sw	t2,164(sp)
80003e68:	00050813          	mv	a6,a0
80003e6c:	00098893          	mv	a7,s3
80003e70:	00090e13          	mv	t3,s2
80003e74:	cadff06f          	j	80003b20 <vprintfmt.constprop.0+0xc44>
80003e78:	04d12823          	sw	a3,80(sp)
80003e7c:	00020693          	mv	a3,tp
80003e80:	00f686b3          	add	a3,a3,a5
80003e84:	02d00613          	li	a2,45
80003e88:	00178793          	addi	a5,a5,1
80003e8c:	00c68023          	sb	a2,0(a3)
80003e90:	04f22023          	sw	a5,64(tp) # 40 <buflen.1>
80003e94:	04000693          	li	a3,64
80003e98:	2ed78663          	beq	a5,a3,80004184 <vprintfmt.constprop.0+0x12a8>
80003e9c:	01d036b3          	snez	a3,t4
80003ea0:	41e00f33          	neg	t5,t5
80003ea4:	40df0a33          	sub	s4,t5,a3
80003ea8:	41d006b3          	neg	a3,t4
80003eac:	00068913          	mv	s2,a3
80003eb0:	00a00693          	li	a3,10
80003eb4:	00068b13          	mv	s6,a3
80003eb8:	00012823          	sw	zero,16(sp)
80003ebc:	d0cff06f          	j	800033c8 <vprintfmt.constprop.0+0x4ec>
80003ec0:	04c12823          	sw	a2,80(sp)
80003ec4:	b8dff06f          	j	80003a50 <vprintfmt.constprop.0+0xb74>
80003ec8:	04000613          	li	a2,64
80003ecc:	14c82023          	sw	a2,320(a6)
80003ed0:	00000693          	li	a3,0
80003ed4:	00020793          	mv	a5,tp
80003ed8:	14d82223          	sw	a3,324(a6)
80003edc:	0ef12c23          	sw	a5,248(sp)
80003ee0:	00100513          	li	a0,1
80003ee4:	14a82423          	sw	a0,328(a6)
80003ee8:	0e012e23          	sw	zero,252(sp)
80003eec:	0f812503          	lw	a0,248(sp)
80003ef0:	00000593          	li	a1,0
80003ef4:	14b82623          	sw	a1,332(a6)
80003ef8:	0fc12583          	lw	a1,252(sp)
80003efc:	14a82823          	sw	a0,336(a6)
80003f00:	14b82a23          	sw	a1,340(a6)
80003f04:	14c82c23          	sw	a2,344(a6)
80003f08:	14d82e23          	sw	a3,348(a6)
80003f0c:	0330000f          	fence	rw,rw
80003f10:	14080793          	addi	a5,a6,320
80003f14:	10f12023          	sw	a5,256(sp)
80003f18:	10012603          	lw	a2,256(sp)
80003f1c:	10012223          	sw	zero,260(sp)
80003f20:	10412683          	lw	a3,260(sp)
80003f24:	ffffd797          	auipc	a5,0xffffd
80003f28:	0dc78793          	addi	a5,a5,220 # 80001000 <tohost>
80003f2c:	00c7a023          	sw	a2,0(a5)
80003f30:	00d7a223          	sw	a3,4(a5)
80003f34:	ffffd697          	auipc	a3,0xffffd
80003f38:	10c68693          	addi	a3,a3,268 # 80001040 <fromhost>
80003f3c:	00068793          	mv	a5,a3
80003f40:	0007a603          	lw	a2,0(a5)
80003f44:	0047a683          	lw	a3,4(a5)
80003f48:	00d66633          	or	a2,a2,a3
80003f4c:	fe060ae3          	beqz	a2,80003f40 <vprintfmt.constprop.0+0x1064>
80003f50:	00000593          	li	a1,0
80003f54:	00b7a023          	sw	a1,0(a5)
80003f58:	00000613          	li	a2,0
80003f5c:	00c7a223          	sw	a2,4(a5)
80003f60:	0330000f          	fence	rw,rw
80003f64:	03012683          	lw	a3,48(sp)
80003f68:	14082603          	lw	a2,320(a6)
80003f6c:	00100793          	li	a5,1
80003f70:	05012683          	lw	a3,80(sp)
80003f74:	07800593          	li	a1,120
80003f78:	01000613          	li	a2,16
80003f7c:	14482683          	lw	a3,324(a6)
80003f80:	02812683          	lw	a3,40(sp)
80003f84:	04f22023          	sw	a5,64(tp) # 40 <buflen.1>
80003f88:	00b20023          	sb	a1,0(tp) # 0 <buf.2>
80003f8c:	00468693          	addi	a3,a3,4
80003f90:	00060b13          	mv	s6,a2
80003f94:	00012823          	sw	zero,16(sp)
80003f98:	ab9ff06f          	j	80003a50 <vprintfmt.constprop.0+0xb74>
80003f9c:	03012783          	lw	a5,48(sp)
80003fa0:	0a612023          	sw	t1,160(sp)
80003fa4:	0b012423          	sw	a6,168(sp)
80003fa8:	0b112623          	sw	a7,172(sp)
80003fac:	000d8313          	mv	t1,s11
80003fb0:	01012d03          	lw	s10,16(sp)
80003fb4:	01412d83          	lw	s11,20(sp)
80003fb8:	0a712223          	sw	t2,164(sp)
80003fbc:	00050813          	mv	a6,a0
80003fc0:	00098893          	mv	a7,s3
80003fc4:	00090e13          	mv	t3,s2
80003fc8:	04022023          	sw	zero,64(tp) # 40 <buflen.1>
80003fcc:	b55ff06f          	j	80003b20 <vprintfmt.constprop.0+0xc44>
80003fd0:	00e05863          	blez	a4,80003fe0 <vprintfmt.constprop.0+0x1104>
80003fd4:	03412603          	lw	a2,52(sp)
80003fd8:	02d00693          	li	a3,45
80003fdc:	02d61e63          	bne	a2,a3,80004018 <vprintfmt.constprop.0+0x113c>
80003fe0:	02800693          	li	a3,40
80003fe4:	00068393          	mv	t2,a3
80003fe8:	00001517          	auipc	a0,0x1
80003fec:	66850513          	addi	a0,a0,1640 # 80005650 <main+0x1b4>
80003ff0:	fecff06f          	j	800037dc <vprintfmt.constprop.0+0x900>
80003ff4:	00e50533          	add	a0,a0,a4
80003ff8:	0b912a23          	sw	s9,180(sp)
80003ffc:	0b812823          	sw	s8,176(sp)
80004000:	0be12c23          	sw	t5,184(sp)
80004004:	0bf12e23          	sw	t6,188(sp)
80004008:	40f50733          	sub	a4,a0,a5
8000400c:	01012c83          	lw	s9,16(sp)
80004010:	d2e040e3          	bgtz	a4,80003d30 <vprintfmt.constprop.0+0xe54>
80004014:	b0dff06f          	j	80003b20 <vprintfmt.constprop.0+0xc44>
80004018:	00001517          	auipc	a0,0x1
8000401c:	63850513          	addi	a0,a0,1592 # 80005650 <main+0x1b4>
80004020:	00050693          	mv	a3,a0
80004024:	00f505b3          	add	a1,a0,a5
80004028:	00079863          	bnez	a5,80004038 <vprintfmt.constprop.0+0x115c>
8000402c:	0200006f          	j	8000404c <vprintfmt.constprop.0+0x1170>
80004030:	00168693          	addi	a3,a3,1
80004034:	00b68663          	beq	a3,a1,80004040 <vprintfmt.constprop.0+0x1164>
80004038:	0006c603          	lbu	a2,0(a3)
8000403c:	fe061ae3          	bnez	a2,80004030 <vprintfmt.constprop.0+0x1154>
80004040:	40a686b3          	sub	a3,a3,a0
80004044:	40d70733          	sub	a4,a4,a3
80004048:	ace056e3          	blez	a4,80003b14 <vprintfmt.constprop.0+0xc38>
8000404c:	02d12823          	sw	a3,48(sp)
80004050:	000e8c13          	mv	s8,t4
80004054:	04022683          	lw	a3,64(tp) # 40 <buflen.1>
80004058:	000e0b93          	mv	s7,t3
8000405c:	03412983          	lw	s3,52(sp)
80004060:	09812e03          	lw	t3,152(sp)
80004064:	09c12e83          	lw	t4,156(sp)
80004068:	04000f93          	li	t6,64
8000406c:	24080293          	addi	t0,a6,576
80004070:	ffffd397          	auipc	t2,0xffffd
80004074:	f9038393          	addi	t2,t2,-112 # 80001000 <tohost>
80004078:	ffffd597          	auipc	a1,0xffffd
8000407c:	fc858593          	addi	a1,a1,-56 # 80001040 <fromhost>
80004080:	00100493          	li	s1,1
80004084:	00200a13          	li	s4,2
80004088:	00020613          	mv	a2,tp
8000408c:	00d60633          	add	a2,a2,a3
80004090:	00168693          	addi	a3,a3,1
80004094:	01360023          	sb	s3,0(a2)
80004098:	04d22023          	sw	a3,64(tp) # 40 <buflen.1>
8000409c:	0bf69c63          	bne	a3,t6,80004154 <vprintfmt.constprop.0+0x1278>
800040a0:	00020693          	mv	a3,tp
800040a4:	04000613          	li	a2,64
800040a8:	24c82023          	sw	a2,576(a6)
800040ac:	0cd12c23          	sw	a3,216(sp)
800040b0:	00000693          	li	a3,0
800040b4:	24d82223          	sw	a3,580(a6)
800040b8:	00100613          	li	a2,1
800040bc:	24c82423          	sw	a2,584(a6)
800040c0:	0c012e23          	sw	zero,220(sp)
800040c4:	0d812603          	lw	a2,216(sp)
800040c8:	00000693          	li	a3,0
800040cc:	24d82623          	sw	a3,588(a6)
800040d0:	0dc12683          	lw	a3,220(sp)
800040d4:	24c82823          	sw	a2,592(a6)
800040d8:	04000613          	li	a2,64
800040dc:	24d82a23          	sw	a3,596(a6)
800040e0:	24c82c23          	sw	a2,600(a6)
800040e4:	00000693          	li	a3,0
800040e8:	24d82e23          	sw	a3,604(a6)
800040ec:	0330000f          	fence	rw,rw
800040f0:	00000e93          	li	t4,0
800040f4:	0053a023          	sw	t0,0(t2)
800040f8:	00028e13          	mv	t3,t0
800040fc:	01d3a223          	sw	t4,4(t2)
80004100:	0005a603          	lw	a2,0(a1)
80004104:	0045a683          	lw	a3,4(a1)
80004108:	00d66633          	or	a2,a2,a3
8000410c:	fe060ae3          	beqz	a2,80004100 <vprintfmt.constprop.0+0x1224>
80004110:	00000613          	li	a2,0
80004114:	00c5a023          	sw	a2,0(a1)
80004118:	00000693          	li	a3,0
8000411c:	00d5a223          	sw	a3,4(a1)
80004120:	0330000f          	fence	rw,rw
80004124:	24082603          	lw	a2,576(a6)
80004128:	24482683          	lw	a3,580(a6)
8000412c:	fff70693          	addi	a3,a4,-1
80004130:	10068463          	beqz	a3,80004238 <vprintfmt.constprop.0+0x135c>
80004134:	00020693          	mv	a3,tp
80004138:	04922023          	sw	s1,64(tp) # 40 <buflen.1>
8000413c:	ffe70713          	addi	a4,a4,-2
80004140:	01368023          	sb	s3,0(a3)
80004144:	00070c63          	beqz	a4,8000415c <vprintfmt.constprop.0+0x1280>
80004148:	013680a3          	sb	s3,1(a3)
8000414c:	05422023          	sw	s4,64(tp) # 40 <buflen.1>
80004150:	00200693          	li	a3,2
80004154:	fff70713          	addi	a4,a4,-1
80004158:	f20718e3          	bnez	a4,80004088 <vprintfmt.constprop.0+0x11ac>
8000415c:	09c12c23          	sw	t3,152(sp)
80004160:	09d12e23          	sw	t4,156(sp)
80004164:	000b8e13          	mv	t3,s7
80004168:	00054683          	lbu	a3,0(a0)
8000416c:	00068393          	mv	t2,a3
80004170:	9a0688e3          	beqz	a3,80003b20 <vprintfmt.constprop.0+0xc44>
80004174:	00000713          	li	a4,0
80004178:	e64ff06f          	j	800037dc <vprintfmt.constprop.0+0x900>
8000417c:	00088693          	mv	a3,a7
80004180:	fe9fe06f          	j	80003168 <vprintfmt.constprop.0+0x28c>
80004184:	04000613          	li	a2,64
80004188:	18c82023          	sw	a2,384(a6)
8000418c:	00000693          	li	a3,0
80004190:	00020793          	mv	a5,tp
80004194:	18d82223          	sw	a3,388(a6)
80004198:	0ef12023          	sw	a5,224(sp)
8000419c:	00100513          	li	a0,1
800041a0:	18a82423          	sw	a0,392(a6)
800041a4:	0e012223          	sw	zero,228(sp)
800041a8:	0e012503          	lw	a0,224(sp)
800041ac:	00000593          	li	a1,0
800041b0:	18b82623          	sw	a1,396(a6)
800041b4:	0e412583          	lw	a1,228(sp)
800041b8:	18a82823          	sw	a0,400(a6)
800041bc:	18b82a23          	sw	a1,404(a6)
800041c0:	18c82c23          	sw	a2,408(a6)
800041c4:	18d82e23          	sw	a3,412(a6)
800041c8:	0330000f          	fence	rw,rw
800041cc:	18080793          	addi	a5,a6,384
800041d0:	0ef12423          	sw	a5,232(sp)
800041d4:	0e812603          	lw	a2,232(sp)
800041d8:	0e012623          	sw	zero,236(sp)
800041dc:	0ec12683          	lw	a3,236(sp)
800041e0:	ffffd797          	auipc	a5,0xffffd
800041e4:	e2078793          	addi	a5,a5,-480 # 80001000 <tohost>
800041e8:	00c7a023          	sw	a2,0(a5)
800041ec:	00d7a223          	sw	a3,4(a5)
800041f0:	ffffd697          	auipc	a3,0xffffd
800041f4:	e5068693          	addi	a3,a3,-432 # 80001040 <fromhost>
800041f8:	00068793          	mv	a5,a3
800041fc:	0007a603          	lw	a2,0(a5)
80004200:	0047a683          	lw	a3,4(a5)
80004204:	00d66633          	or	a2,a2,a3
80004208:	fe060ae3          	beqz	a2,800041fc <vprintfmt.constprop.0+0x1320>
8000420c:	00000593          	li	a1,0
80004210:	00b7a023          	sw	a1,0(a5)
80004214:	00000613          	li	a2,0
80004218:	00c7a223          	sw	a2,4(a5)
8000421c:	0330000f          	fence	rw,rw
80004220:	03012783          	lw	a5,48(sp)
80004224:	18082603          	lw	a2,384(a6)
80004228:	18482683          	lw	a3,388(a6)
8000422c:	04022023          	sw	zero,64(tp) # 40 <buflen.1>
80004230:	00000793          	li	a5,0
80004234:	c69ff06f          	j	80003e9c <vprintfmt.constprop.0+0xfc0>
80004238:	03012703          	lw	a4,48(sp)
8000423c:	09c12c23          	sw	t3,152(sp)
80004240:	09d12e23          	sw	t4,156(sp)
80004244:	000b8e13          	mv	t3,s7
80004248:	04022023          	sw	zero,64(tp) # 40 <buflen.1>
8000424c:	f1dff06f          	j	80004168 <vprintfmt.constprop.0+0x128c>

80004250 <setStats>:
80004250:	b0002773          	csrr	a4,mcycle
80004254:	00002797          	auipc	a5,0x2
80004258:	83c78793          	addi	a5,a5,-1988 # 80005a90 <counters>
8000425c:	00050a63          	beqz	a0,80004270 <setStats+0x20>
80004260:	00e7a023          	sw	a4,0(a5)
80004264:	b0202773          	csrr	a4,minstret
80004268:	00e7a223          	sw	a4,4(a5)
8000426c:	00008067          	ret
80004270:	0007a583          	lw	a1,0(a5)
80004274:	00002697          	auipc	a3,0x2
80004278:	81468693          	addi	a3,a3,-2028 # 80005a88 <counter_names>
8000427c:	00001617          	auipc	a2,0x1
80004280:	3e060613          	addi	a2,a2,992 # 8000565c <main+0x1c0>
80004284:	40b70733          	sub	a4,a4,a1
80004288:	00e7a023          	sw	a4,0(a5)
8000428c:	00c6a023          	sw	a2,0(a3)
80004290:	b0202773          	csrr	a4,minstret
80004294:	0047a603          	lw	a2,4(a5)
80004298:	00001597          	auipc	a1,0x1
8000429c:	3cc58593          	addi	a1,a1,972 # 80005664 <main+0x1c8>
800042a0:	00b6a223          	sw	a1,4(a3)
800042a4:	40c70733          	sub	a4,a4,a2
800042a8:	00e7a223          	sw	a4,4(a5)
800042ac:	00008067          	ret

800042b0 <tohost_exit>:
800042b0:	00151693          	slli	a3,a0,0x1
800042b4:	0016e713          	ori	a4,a3,1
800042b8:	ffffd697          	auipc	a3,0xffffd
800042bc:	d4868693          	addi	a3,a3,-696 # 80001000 <tohost>
800042c0:	00000793          	li	a5,0
800042c4:	00e6a023          	sw	a4,0(a3)
800042c8:	00f6a223          	sw	a5,4(a3)
800042cc:	0000006f          	j	800042cc <tohost_exit+0x1c>

800042d0 <handle_trap>:
800042d0:	00001637          	lui	a2,0x1
800042d4:	ffffd797          	auipc	a5,0xffffd
800042d8:	d2c78793          	addi	a5,a5,-724 # 80001000 <tohost>
800042dc:	a7360613          	addi	a2,a2,-1421 # a73 <buflen.1+0xa33>
800042e0:	00000693          	li	a3,0
800042e4:	00c7a023          	sw	a2,0(a5)
800042e8:	00d7a223          	sw	a3,4(a5)
800042ec:	0000006f          	j	800042ec <handle_trap+0x1c>

800042f0 <exit>:
800042f0:	ff010113          	addi	sp,sp,-16
800042f4:	00112623          	sw	ra,12(sp)
800042f8:	fb9ff0ef          	jal	800042b0 <tohost_exit>

800042fc <abort>:
800042fc:	ffffd797          	auipc	a5,0xffffd
80004300:	d0478793          	addi	a5,a5,-764 # 80001000 <tohost>
80004304:	10d00613          	li	a2,269
80004308:	00000693          	li	a3,0
8000430c:	00c7a023          	sw	a2,0(a5)
80004310:	00d7a223          	sw	a3,4(a5)
80004314:	0000006f          	j	80004314 <abort+0x18>

80004318 <printstr>:
80004318:	00054783          	lbu	a5,0(a0)
8000431c:	f8010113          	addi	sp,sp,-128
80004320:	03f10613          	addi	a2,sp,63
80004324:	00050813          	mv	a6,a0
80004328:	00000893          	li	a7,0
8000432c:	fc067613          	andi	a2,a2,-64
80004330:	0a078063          	beqz	a5,800043d0 <printstr+0xb8>
80004334:	00050793          	mv	a5,a0
80004338:	0017c703          	lbu	a4,1(a5)
8000433c:	00178793          	addi	a5,a5,1
80004340:	fe071ce3          	bnez	a4,80004338 <printstr+0x20>
80004344:	40a78333          	sub	t1,a5,a0
80004348:	00000393          	li	t2,0
8000434c:	04000713          	li	a4,64
80004350:	00e62023          	sw	a4,0(a2)
80004354:	00000793          	li	a5,0
80004358:	00f62223          	sw	a5,4(a2)
8000435c:	00100713          	li	a4,1
80004360:	00e62423          	sw	a4,8(a2)
80004364:	00000793          	li	a5,0
80004368:	00f62623          	sw	a5,12(a2)
8000436c:	01062823          	sw	a6,16(a2)
80004370:	01162a23          	sw	a7,20(a2)
80004374:	00662c23          	sw	t1,24(a2)
80004378:	00762e23          	sw	t2,28(a2)
8000437c:	0330000f          	fence	rw,rw
80004380:	ffffd697          	auipc	a3,0xffffd
80004384:	c8068693          	addi	a3,a3,-896 # 80001000 <tohost>
80004388:	00c6a023          	sw	a2,0(a3)
8000438c:	00000793          	li	a5,0
80004390:	00f6a223          	sw	a5,4(a3)
80004394:	ffffd697          	auipc	a3,0xffffd
80004398:	cac68693          	addi	a3,a3,-852 # 80001040 <fromhost>
8000439c:	0006a703          	lw	a4,0(a3)
800043a0:	0046a783          	lw	a5,4(a3)
800043a4:	00f76733          	or	a4,a4,a5
800043a8:	fe070ae3          	beqz	a4,8000439c <printstr+0x84>
800043ac:	00000793          	li	a5,0
800043b0:	00f6a023          	sw	a5,0(a3)
800043b4:	00000813          	li	a6,0
800043b8:	0106a223          	sw	a6,4(a3)
800043bc:	0330000f          	fence	rw,rw
800043c0:	00062703          	lw	a4,0(a2)
800043c4:	00462783          	lw	a5,4(a2)
800043c8:	08010113          	addi	sp,sp,128
800043cc:	00008067          	ret
800043d0:	00000313          	li	t1,0
800043d4:	00000393          	li	t2,0
800043d8:	f75ff06f          	j	8000434c <printstr+0x34>

800043dc <thread_entry>:
800043dc:	00051463          	bnez	a0,800043e4 <thread_entry+0x8>
800043e0:	00008067          	ret
800043e4:	0000006f          	j	800043e4 <thread_entry+0x8>

800043e8 <printhex>:
800043e8:	f5010113          	addi	sp,sp,-176
800043ec:	0b212223          	sw	s2,164(sp)
800043f0:	0b312023          	sw	s3,160(sp)
800043f4:	00855913          	srli	s2,a0,0x8
800043f8:	00455993          	srli	s3,a0,0x4
800043fc:	00900793          	li	a5,9
80004400:	00f9f713          	andi	a4,s3,15
80004404:	00f97613          	andi	a2,s2,15
80004408:	00e7b733          	sltu	a4,a5,a4
8000440c:	00c7b633          	sltu	a2,a5,a2
80004410:	40e00733          	neg	a4,a4
80004414:	40c00633          	neg	a2,a2
80004418:	02777713          	andi	a4,a4,39
8000441c:	02767613          	andi	a2,a2,39
80004420:	01455393          	srli	t2,a0,0x14
80004424:	01855293          	srli	t0,a0,0x18
80004428:	03070713          	addi	a4,a4,48
8000442c:	03060613          	addi	a2,a2,48
80004430:	0a812623          	sw	s0,172(sp)
80004434:	00f9f993          	andi	s3,s3,15
80004438:	01055413          	srli	s0,a0,0x10
8000443c:	00f97913          	andi	s2,s2,15
80004440:	00c90933          	add	s2,s2,a2
80004444:	00e989b3          	add	s3,s3,a4
80004448:	00f47693          	andi	a3,s0,15
8000444c:	00f3f613          	andi	a2,t2,15
80004450:	00f2f713          	andi	a4,t0,15
80004454:	00d7b6b3          	sltu	a3,a5,a3
80004458:	00c7b633          	sltu	a2,a5,a2
8000445c:	00e7b733          	sltu	a4,a5,a4
80004460:	40d006b3          	neg	a3,a3
80004464:	40c00633          	neg	a2,a2
80004468:	40e00733          	neg	a4,a4
8000446c:	0276f693          	andi	a3,a3,39
80004470:	02767613          	andi	a2,a2,39
80004474:	02777713          	andi	a4,a4,39
80004478:	0045df93          	srli	t6,a1,0x4
8000447c:	0085df13          	srli	t5,a1,0x8
80004480:	00c5de93          	srli	t4,a1,0xc
80004484:	03068693          	addi	a3,a3,48
80004488:	03060613          	addi	a2,a2,48
8000448c:	03070713          	addi	a4,a4,48
80004490:	00f47413          	andi	s0,s0,15
80004494:	00f3f393          	andi	t2,t2,15
80004498:	00f2f293          	andi	t0,t0,15
8000449c:	00d40433          	add	s0,s0,a3
800044a0:	00c383b3          	add	t2,t2,a2
800044a4:	00fff693          	andi	a3,t6,15
800044a8:	00ff7613          	andi	a2,t5,15
800044ac:	00e282b3          	add	t0,t0,a4
800044b0:	00fef713          	andi	a4,t4,15
800044b4:	00d7b6b3          	sltu	a3,a5,a3
800044b8:	00c7b633          	sltu	a2,a5,a2
800044bc:	00e7b733          	sltu	a4,a5,a4
800044c0:	40d006b3          	neg	a3,a3
800044c4:	40c00633          	neg	a2,a2
800044c8:	40e00733          	neg	a4,a4
800044cc:	0276f693          	andi	a3,a3,39
800044d0:	02767613          	andi	a2,a2,39
800044d4:	02777713          	andi	a4,a4,39
800044d8:	0105de13          	srli	t3,a1,0x10
800044dc:	0145d313          	srli	t1,a1,0x14
800044e0:	0185d893          	srli	a7,a1,0x18
800044e4:	03068693          	addi	a3,a3,48
800044e8:	03060613          	addi	a2,a2,48
800044ec:	03070713          	addi	a4,a4,48
800044f0:	0a912423          	sw	s1,168(sp)
800044f4:	00ffff93          	andi	t6,t6,15
800044f8:	00c55493          	srli	s1,a0,0xc
800044fc:	00ff7f13          	andi	t5,t5,15
80004500:	00fefe93          	andi	t4,t4,15
80004504:	00f4f813          	andi	a6,s1,15
80004508:	00df8fb3          	add	t6,t6,a3
8000450c:	00cf0f33          	add	t5,t5,a2
80004510:	00fe7693          	andi	a3,t3,15
80004514:	00f37613          	andi	a2,t1,15
80004518:	00ee8eb3          	add	t4,t4,a4
8000451c:	00f8f713          	andi	a4,a7,15
80004520:	0107b833          	sltu	a6,a5,a6
80004524:	00d7b6b3          	sltu	a3,a5,a3
80004528:	00c7b633          	sltu	a2,a5,a2
8000452c:	00e7b733          	sltu	a4,a5,a4
80004530:	41000833          	neg	a6,a6
80004534:	40d006b3          	neg	a3,a3
80004538:	40c00633          	neg	a2,a2
8000453c:	40e00733          	neg	a4,a4
80004540:	02787813          	andi	a6,a6,39
80004544:	0276f693          	andi	a3,a3,39
80004548:	02767613          	andi	a2,a2,39
8000454c:	02777713          	andi	a4,a4,39
80004550:	03080813          	addi	a6,a6,48
80004554:	03068693          	addi	a3,a3,48
80004558:	03060613          	addi	a2,a2,48
8000455c:	03070713          	addi	a4,a4,48
80004560:	00f4f493          	andi	s1,s1,15
80004564:	00fe7e13          	andi	t3,t3,15
80004568:	00f37313          	andi	t1,t1,15
8000456c:	00f8f893          	andi	a7,a7,15
80004570:	010484b3          	add	s1,s1,a6
80004574:	00de0e33          	add	t3,t3,a3
80004578:	00f57813          	andi	a6,a0,15
8000457c:	00c30333          	add	t1,t1,a2
80004580:	00e888b3          	add	a7,a7,a4
80004584:	01c55613          	srli	a2,a0,0x1c
80004588:	01c5d713          	srli	a4,a1,0x1c
8000458c:	00f5f693          	andi	a3,a1,15
80004590:	0107b833          	sltu	a6,a5,a6
80004594:	00c7b633          	sltu	a2,a5,a2
80004598:	00d7b6b3          	sltu	a3,a5,a3
8000459c:	00e7b7b3          	sltu	a5,a5,a4
800045a0:	41000833          	neg	a6,a6
800045a4:	40c00633          	neg	a2,a2
800045a8:	40d006b3          	neg	a3,a3
800045ac:	40f007b3          	neg	a5,a5
800045b0:	02787813          	andi	a6,a6,39
800045b4:	02767613          	andi	a2,a2,39
800045b8:	0276f693          	andi	a3,a3,39
800045bc:	0277f793          	andi	a5,a5,39
800045c0:	03080813          	addi	a6,a6,48
800045c4:	03060613          	addi	a2,a2,48
800045c8:	03078793          	addi	a5,a5,48
800045cc:	00f5f713          	andi	a4,a1,15
800045d0:	03068693          	addi	a3,a3,48
800045d4:	01210ca3          	sb	s2,25(sp)
800045d8:	01c5d593          	srli	a1,a1,0x1c
800045dc:	00f57913          	andi	s2,a0,15
800045e0:	01c55513          	srli	a0,a0,0x1c
800045e4:	01090933          	add	s2,s2,a6
800045e8:	00c50533          	add	a0,a0,a2
800045ec:	00c10813          	addi	a6,sp,12
800045f0:	00f585b3          	add	a1,a1,a5
800045f4:	00d70733          	add	a4,a4,a3
800045f8:	05f10613          	addi	a2,sp,95
800045fc:	00910c23          	sb	s1,24(sp)
80004600:	00810ba3          	sb	s0,23(sp)
80004604:	00010e23          	sb	zero,28(sp)
80004608:	01310d23          	sb	s3,26(sp)
8000460c:	00080413          	mv	s0,a6
80004610:	00710b23          	sb	t2,22(sp)
80004614:	00510aa3          	sb	t0,21(sp)
80004618:	01f10923          	sb	t6,18(sp)
8000461c:	01e108a3          	sb	t5,17(sp)
80004620:	01d10823          	sb	t4,16(sp)
80004624:	01c107a3          	sb	t3,15(sp)
80004628:	00610723          	sb	t1,14(sp)
8000462c:	011106a3          	sb	a7,13(sp)
80004630:	01210da3          	sb	s2,27(sp)
80004634:	00a10a23          	sb	a0,20(sp)
80004638:	00e109a3          	sb	a4,19(sp)
8000463c:	00b10623          	sb	a1,12(sp)
80004640:	00000493          	li	s1,0
80004644:	00080793          	mv	a5,a6
80004648:	fc067613          	andi	a2,a2,-64
8000464c:	0017c703          	lbu	a4,1(a5)
80004650:	00178793          	addi	a5,a5,1
80004654:	fe071ce3          	bnez	a4,8000464c <printhex+0x264>
80004658:	04000513          	li	a0,64
8000465c:	00a62023          	sw	a0,0(a2)
80004660:	00000593          	li	a1,0
80004664:	00b62223          	sw	a1,4(a2)
80004668:	00100313          	li	t1,1
8000466c:	00662423          	sw	t1,8(a2)
80004670:	00000393          	li	t2,0
80004674:	00762623          	sw	t2,12(a2)
80004678:	00862823          	sw	s0,16(a2)
8000467c:	00962a23          	sw	s1,20(a2)
80004680:	41078533          	sub	a0,a5,a6
80004684:	00a62c23          	sw	a0,24(a2)
80004688:	00000593          	li	a1,0
8000468c:	00b62e23          	sw	a1,28(a2)
80004690:	0330000f          	fence	rw,rw
80004694:	ffffd697          	auipc	a3,0xffffd
80004698:	96c68693          	addi	a3,a3,-1684 # 80001000 <tohost>
8000469c:	00c6a023          	sw	a2,0(a3)
800046a0:	00000793          	li	a5,0
800046a4:	00f6a223          	sw	a5,4(a3)
800046a8:	ffffd697          	auipc	a3,0xffffd
800046ac:	99868693          	addi	a3,a3,-1640 # 80001040 <fromhost>
800046b0:	0006a703          	lw	a4,0(a3)
800046b4:	0046a783          	lw	a5,4(a3)
800046b8:	00f76733          	or	a4,a4,a5
800046bc:	fe070ae3          	beqz	a4,800046b0 <printhex+0x2c8>
800046c0:	00000793          	li	a5,0
800046c4:	00f6a023          	sw	a5,0(a3)
800046c8:	00000813          	li	a6,0
800046cc:	0106a223          	sw	a6,4(a3)
800046d0:	0330000f          	fence	rw,rw
800046d4:	0ac12403          	lw	s0,172(sp)
800046d8:	00062703          	lw	a4,0(a2)
800046dc:	0a812483          	lw	s1,168(sp)
800046e0:	0a412903          	lw	s2,164(sp)
800046e4:	0a012983          	lw	s3,160(sp)
800046e8:	00462783          	lw	a5,4(a2)
800046ec:	0b010113          	addi	sp,sp,176
800046f0:	00008067          	ret

800046f4 <printf>:
800046f4:	fc010113          	addi	sp,sp,-64
800046f8:	02410313          	addi	t1,sp,36
800046fc:	02b12223          	sw	a1,36(sp)
80004700:	00030593          	mv	a1,t1
80004704:	00112e23          	sw	ra,28(sp)
80004708:	02c12423          	sw	a2,40(sp)
8000470c:	02d12623          	sw	a3,44(sp)
80004710:	02e12823          	sw	a4,48(sp)
80004714:	02f12a23          	sw	a5,52(sp)
80004718:	03012c23          	sw	a6,56(sp)
8000471c:	03112e23          	sw	a7,60(sp)
80004720:	00612623          	sw	t1,12(sp)
80004724:	fb8fe0ef          	jal	80002edc <vprintfmt.constprop.0>
80004728:	01c12083          	lw	ra,28(sp)
8000472c:	00000513          	li	a0,0
80004730:	04010113          	addi	sp,sp,64
80004734:	00008067          	ret

80004738 <sprintf>:
80004738:	fb010113          	addi	sp,sp,-80
8000473c:	03810313          	addi	t1,sp,56
80004740:	02812423          	sw	s0,40(sp)
80004744:	00a12623          	sw	a0,12(sp)
80004748:	02c12c23          	sw	a2,56(sp)
8000474c:	00050413          	mv	s0,a0
80004750:	00030613          	mv	a2,t1
80004754:	00c10513          	addi	a0,sp,12
80004758:	02112623          	sw	ra,44(sp)
8000475c:	02d12e23          	sw	a3,60(sp)
80004760:	04e12023          	sw	a4,64(sp)
80004764:	04f12223          	sw	a5,68(sp)
80004768:	05012423          	sw	a6,72(sp)
8000476c:	05112623          	sw	a7,76(sp)
80004770:	00612e23          	sw	t1,28(sp)
80004774:	9bcfe0ef          	jal	80002930 <vprintfmt.constprop.1>
80004778:	00c12503          	lw	a0,12(sp)
8000477c:	00050023          	sb	zero,0(a0)
80004780:	02c12083          	lw	ra,44(sp)
80004784:	40850533          	sub	a0,a0,s0
80004788:	02812403          	lw	s0,40(sp)
8000478c:	05010113          	addi	sp,sp,80
80004790:	00008067          	ret

80004794 <memcpy>:
80004794:	00c5e833          	or	a6,a1,a2
80004798:	00a86833          	or	a6,a6,a0
8000479c:	00387813          	andi	a6,a6,3
800047a0:	00058713          	mv	a4,a1
800047a4:	00050793          	mv	a5,a0
800047a8:	00c506b3          	add	a3,a0,a2
800047ac:	08080063          	beqz	a6,8000482c <memcpy+0x98>
800047b0:	18d57863          	bgeu	a0,a3,80004940 <memcpy+0x1ac>
800047b4:	fff60813          	addi	a6,a2,-1
800047b8:	00600893          	li	a7,6
800047bc:	1508fe63          	bgeu	a7,a6,80004918 <memcpy+0x184>
800047c0:	00b56833          	or	a6,a0,a1
800047c4:	00387813          	andi	a6,a6,3
800047c8:	14081863          	bnez	a6,80004918 <memcpy+0x184>
800047cc:	00158813          	addi	a6,a1,1
800047d0:	410508b3          	sub	a7,a0,a6
800047d4:	0038b893          	sltiu	a7,a7,3
800047d8:	14089263          	bnez	a7,8000491c <memcpy+0x188>
800047dc:	ffc67893          	andi	a7,a2,-4
800047e0:	01158833          	add	a6,a1,a7
800047e4:	00072583          	lw	a1,0(a4)
800047e8:	00470713          	addi	a4,a4,4
800047ec:	00478793          	addi	a5,a5,4
800047f0:	feb7ae23          	sw	a1,-4(a5)
800047f4:	fee818e3          	bne	a6,a4,800047e4 <memcpy+0x50>
800047f8:	011507b3          	add	a5,a0,a7
800047fc:	15160063          	beq	a2,a7,8000493c <memcpy+0x1a8>
80004800:	00084603          	lbu	a2,0(a6)
80004804:	00178713          	addi	a4,a5,1
80004808:	00c78023          	sb	a2,0(a5)
8000480c:	12d77863          	bgeu	a4,a3,8000493c <memcpy+0x1a8>
80004810:	00184603          	lbu	a2,1(a6)
80004814:	00278713          	addi	a4,a5,2
80004818:	00c780a3          	sb	a2,1(a5)
8000481c:	12d77063          	bgeu	a4,a3,8000493c <memcpy+0x1a8>
80004820:	00284703          	lbu	a4,2(a6)
80004824:	00e78123          	sb	a4,2(a5)
80004828:	00008067          	ret
8000482c:	02050393          	addi	t2,a0,32
80004830:	06d3f463          	bgeu	t2,a3,80004898 <memcpy+0x104>
80004834:	00038793          	mv	a5,t2
80004838:	0005a283          	lw	t0,0(a1)
8000483c:	0045af83          	lw	t6,4(a1)
80004840:	0085af03          	lw	t5,8(a1)
80004844:	00c5ae83          	lw	t4,12(a1)
80004848:	0105ae03          	lw	t3,16(a1)
8000484c:	0145a303          	lw	t1,20(a1)
80004850:	0185a883          	lw	a7,24(a1)
80004854:	01c5a803          	lw	a6,28(a1)
80004858:	02078793          	addi	a5,a5,32
8000485c:	fc57a023          	sw	t0,-64(a5)
80004860:	fdf7a223          	sw	t6,-60(a5)
80004864:	fde7a423          	sw	t5,-56(a5)
80004868:	fdd7a623          	sw	t4,-52(a5)
8000486c:	fdc7a823          	sw	t3,-48(a5)
80004870:	fc67aa23          	sw	t1,-44(a5)
80004874:	fd17ac23          	sw	a7,-40(a5)
80004878:	fd07ae23          	sw	a6,-36(a5)
8000487c:	02058593          	addi	a1,a1,32
80004880:	fad7ece3          	bltu	a5,a3,80004838 <memcpy+0xa4>
80004884:	fdf60613          	addi	a2,a2,-33
80004888:	fe067613          	andi	a2,a2,-32
8000488c:	02070713          	addi	a4,a4,32
80004890:	00c387b3          	add	a5,t2,a2
80004894:	00c705b3          	add	a1,a4,a2
80004898:	0ad7f263          	bgeu	a5,a3,8000493c <memcpy+0x1a8>
8000489c:	0005a603          	lw	a2,0(a1)
800048a0:	00478713          	addi	a4,a5,4
800048a4:	00c7a023          	sw	a2,0(a5)
800048a8:	08d77a63          	bgeu	a4,a3,8000493c <memcpy+0x1a8>
800048ac:	0045a603          	lw	a2,4(a1)
800048b0:	00878713          	addi	a4,a5,8
800048b4:	00c7a223          	sw	a2,4(a5)
800048b8:	08d77263          	bgeu	a4,a3,8000493c <memcpy+0x1a8>
800048bc:	0085a603          	lw	a2,8(a1)
800048c0:	00c78713          	addi	a4,a5,12
800048c4:	00c7a423          	sw	a2,8(a5)
800048c8:	06d77a63          	bgeu	a4,a3,8000493c <memcpy+0x1a8>
800048cc:	00c5a603          	lw	a2,12(a1)
800048d0:	01078713          	addi	a4,a5,16
800048d4:	00c7a623          	sw	a2,12(a5)
800048d8:	06d77263          	bgeu	a4,a3,8000493c <memcpy+0x1a8>
800048dc:	0105a603          	lw	a2,16(a1)
800048e0:	01478713          	addi	a4,a5,20
800048e4:	00c7a823          	sw	a2,16(a5)
800048e8:	04d77a63          	bgeu	a4,a3,8000493c <memcpy+0x1a8>
800048ec:	0145a603          	lw	a2,20(a1)
800048f0:	01878713          	addi	a4,a5,24
800048f4:	00c7aa23          	sw	a2,20(a5)
800048f8:	04d77263          	bgeu	a4,a3,8000493c <memcpy+0x1a8>
800048fc:	0185a603          	lw	a2,24(a1)
80004900:	01c78713          	addi	a4,a5,28
80004904:	00c7ac23          	sw	a2,24(a5)
80004908:	02d77a63          	bgeu	a4,a3,8000493c <memcpy+0x1a8>
8000490c:	01c5a703          	lw	a4,28(a1)
80004910:	00e7ae23          	sw	a4,28(a5)
80004914:	00008067          	ret
80004918:	00158813          	addi	a6,a1,1
8000491c:	00c58633          	add	a2,a1,a2
80004920:	00050793          	mv	a5,a0
80004924:	0080006f          	j	8000492c <memcpy+0x198>
80004928:	00180813          	addi	a6,a6,1
8000492c:	fff84703          	lbu	a4,-1(a6)
80004930:	00178793          	addi	a5,a5,1
80004934:	fee78fa3          	sb	a4,-1(a5)
80004938:	ff0618e3          	bne	a2,a6,80004928 <memcpy+0x194>
8000493c:	00008067          	ret
80004940:	00008067          	ret

80004944 <memset>:
80004944:	00c567b3          	or	a5,a0,a2
80004948:	0037f793          	andi	a5,a5,3
8000494c:	00c50833          	add	a6,a0,a2
80004950:	0c078863          	beqz	a5,80004a20 <memset+0xdc>
80004954:	0f057c63          	bgeu	a0,a6,80004a4c <memset+0x108>
80004958:	40a006b3          	neg	a3,a0
8000495c:	fff60893          	addi	a7,a2,-1
80004960:	00500313          	li	t1,5
80004964:	0ff5f713          	zext.b	a4,a1
80004968:	0036f793          	andi	a5,a3,3
8000496c:	0f137263          	bgeu	t1,a7,80004a50 <memset+0x10c>
80004970:	00050893          	mv	a7,a0
80004974:	02078663          	beqz	a5,800049a0 <memset+0x5c>
80004978:	00e50023          	sb	a4,0(a0)
8000497c:	0026f693          	andi	a3,a3,2
80004980:	00150893          	addi	a7,a0,1
80004984:	00068e63          	beqz	a3,800049a0 <memset+0x5c>
80004988:	00e500a3          	sb	a4,1(a0)
8000498c:	00300693          	li	a3,3
80004990:	00250893          	addi	a7,a0,2
80004994:	00d79663          	bne	a5,a3,800049a0 <memset+0x5c>
80004998:	00e50123          	sb	a4,2(a0)
8000499c:	00350893          	addi	a7,a0,3
800049a0:	00871693          	slli	a3,a4,0x8
800049a4:	40f60633          	sub	a2,a2,a5
800049a8:	01071593          	slli	a1,a4,0x10
800049ac:	00d766b3          	or	a3,a4,a3
800049b0:	00b6e6b3          	or	a3,a3,a1
800049b4:	00f507b3          	add	a5,a0,a5
800049b8:	01871593          	slli	a1,a4,0x18
800049bc:	ffc67313          	andi	t1,a2,-4
800049c0:	00b6e6b3          	or	a3,a3,a1
800049c4:	00f305b3          	add	a1,t1,a5
800049c8:	00d7a023          	sw	a3,0(a5)
800049cc:	00478793          	addi	a5,a5,4
800049d0:	feb79ce3          	bne	a5,a1,800049c8 <memset+0x84>
800049d4:	006887b3          	add	a5,a7,t1
800049d8:	04c30263          	beq	t1,a2,80004a1c <memset+0xd8>
800049dc:	00e78023          	sb	a4,0(a5)
800049e0:	00178693          	addi	a3,a5,1
800049e4:	0306fc63          	bgeu	a3,a6,80004a1c <memset+0xd8>
800049e8:	00e780a3          	sb	a4,1(a5)
800049ec:	00278693          	addi	a3,a5,2
800049f0:	0306f663          	bgeu	a3,a6,80004a1c <memset+0xd8>
800049f4:	00e78123          	sb	a4,2(a5)
800049f8:	00378693          	addi	a3,a5,3
800049fc:	0306f063          	bgeu	a3,a6,80004a1c <memset+0xd8>
80004a00:	00e781a3          	sb	a4,3(a5)
80004a04:	00478693          	addi	a3,a5,4
80004a08:	0106fa63          	bgeu	a3,a6,80004a1c <memset+0xd8>
80004a0c:	00e78223          	sb	a4,4(a5)
80004a10:	00578693          	addi	a3,a5,5
80004a14:	0106f463          	bgeu	a3,a6,80004a1c <memset+0xd8>
80004a18:	00e782a3          	sb	a4,5(a5)
80004a1c:	00008067          	ret
80004a20:	0ff5f593          	zext.b	a1,a1
80004a24:	00859713          	slli	a4,a1,0x8
80004a28:	00b70733          	add	a4,a4,a1
80004a2c:	01071793          	slli	a5,a4,0x10
80004a30:	00f70733          	add	a4,a4,a5
80004a34:	ff0574e3          	bgeu	a0,a6,80004a1c <memset+0xd8>
80004a38:	00050793          	mv	a5,a0
80004a3c:	00478793          	addi	a5,a5,4
80004a40:	fee7ae23          	sw	a4,-4(a5)
80004a44:	ff07ece3          	bltu	a5,a6,80004a3c <memset+0xf8>
80004a48:	00008067          	ret
80004a4c:	00008067          	ret
80004a50:	00050793          	mv	a5,a0
80004a54:	f89ff06f          	j	800049dc <memset+0x98>

80004a58 <_init>:
80004a58:	f6010113          	addi	sp,sp,-160
80004a5c:	8f818793          	addi	a5,gp,-1800 # 80005b78 <_tdata_begin>
80004a60:	09312623          	sw	s3,140(sp)
80004a64:	8f818993          	addi	s3,gp,-1800 # 80005b78 <_tdata_begin>
80004a68:	09412423          	sw	s4,136(sp)
80004a6c:	40f98a33          	sub	s4,s3,a5
80004a70:	08912a23          	sw	s1,148(sp)
80004a74:	09212823          	sw	s2,144(sp)
80004a78:	00050493          	mv	s1,a0
80004a7c:	00058913          	mv	s2,a1
80004a80:	00020513          	mv	a0,tp
80004a84:	00078593          	mv	a1,a5
80004a88:	000a0613          	mv	a2,s4
80004a8c:	08112e23          	sw	ra,156(sp)
80004a90:	08812c23          	sw	s0,152(sp)
80004a94:	09512223          	sw	s5,132(sp)
80004a98:	00020a93          	mv	s5,tp
80004a9c:	cf9ff0ef          	jal	80004794 <memcpy>
80004aa0:	94418613          	addi	a2,gp,-1724 # 80005bc4 <_tbss_end>
80004aa4:	41360633          	sub	a2,a2,s3
80004aa8:	00000593          	li	a1,0
80004aac:	014a8533          	add	a0,s5,s4
80004ab0:	e95ff0ef          	jal	80004944 <memset>
80004ab4:	00048513          	mv	a0,s1
80004ab8:	00090593          	mv	a1,s2
80004abc:	921ff0ef          	jal	800043dc <thread_entry>
80004ac0:	00000593          	li	a1,0
80004ac4:	00000513          	li	a0,0
80004ac8:	1d5000ef          	jal	8000549c <main>
80004acc:	00001797          	auipc	a5,0x1
80004ad0:	fc478793          	addi	a5,a5,-60 # 80005a90 <counters>
80004ad4:	0007a683          	lw	a3,0(a5)
80004ad8:	03f10413          	addi	s0,sp,63
80004adc:	0047a983          	lw	s3,4(a5)
80004ae0:	fc047413          	andi	s0,s0,-64
80004ae4:	00050493          	mv	s1,a0
80004ae8:	04069463          	bnez	a3,80004b30 <_init+0xd8>
80004aec:	00099663          	bnez	s3,80004af8 <_init+0xa0>
80004af0:	00048513          	mv	a0,s1
80004af4:	fbcff0ef          	jal	800042b0 <tohost_exit>
80004af8:	00040913          	mv	s2,s0
80004afc:	00001a17          	auipc	s4,0x1
80004b00:	f8ca0a13          	addi	s4,s4,-116 # 80005a88 <counter_names>
80004b04:	004a2603          	lw	a2,4(s4)
80004b08:	00090513          	mv	a0,s2
80004b0c:	00098693          	mv	a3,s3
80004b10:	00001597          	auipc	a1,0x1
80004b14:	b7858593          	addi	a1,a1,-1160 # 80005688 <main+0x1ec>
80004b18:	c21ff0ef          	jal	80004738 <sprintf>
80004b1c:	00a90933          	add	s2,s2,a0
80004b20:	fd2408e3          	beq	s0,s2,80004af0 <_init+0x98>
80004b24:	00040513          	mv	a0,s0
80004b28:	ff0ff0ef          	jal	80004318 <printstr>
80004b2c:	fc5ff06f          	j	80004af0 <_init+0x98>
80004b30:	00001a17          	auipc	s4,0x1
80004b34:	f58a0a13          	addi	s4,s4,-168 # 80005a88 <counter_names>
80004b38:	000a2603          	lw	a2,0(s4)
80004b3c:	00001597          	auipc	a1,0x1
80004b40:	b4c58593          	addi	a1,a1,-1204 # 80005688 <main+0x1ec>
80004b44:	00040513          	mv	a0,s0
80004b48:	bf1ff0ef          	jal	80004738 <sprintf>
80004b4c:	00a40933          	add	s2,s0,a0
80004b50:	fc0988e3          	beqz	s3,80004b20 <_init+0xc8>
80004b54:	fb1ff06f          	j	80004b04 <_init+0xac>

80004b58 <strlen>:
80004b58:	00054783          	lbu	a5,0(a0)
80004b5c:	00078e63          	beqz	a5,80004b78 <strlen+0x20>
80004b60:	00050793          	mv	a5,a0
80004b64:	0017c703          	lbu	a4,1(a5)
80004b68:	00178793          	addi	a5,a5,1
80004b6c:	fe071ce3          	bnez	a4,80004b64 <strlen+0xc>
80004b70:	40a78533          	sub	a0,a5,a0
80004b74:	00008067          	ret
80004b78:	00000513          	li	a0,0
80004b7c:	00008067          	ret

80004b80 <strnlen>:
80004b80:	00b506b3          	add	a3,a0,a1
80004b84:	00050793          	mv	a5,a0
80004b88:	00059863          	bnez	a1,80004b98 <strnlen+0x18>
80004b8c:	0240006f          	j	80004bb0 <strnlen+0x30>
80004b90:	00178793          	addi	a5,a5,1
80004b94:	00f68a63          	beq	a3,a5,80004ba8 <strnlen+0x28>
80004b98:	0007c703          	lbu	a4,0(a5)
80004b9c:	fe071ae3          	bnez	a4,80004b90 <strnlen+0x10>
80004ba0:	40a78533          	sub	a0,a5,a0
80004ba4:	00008067          	ret
80004ba8:	00058513          	mv	a0,a1
80004bac:	00008067          	ret
80004bb0:	00000513          	li	a0,0
80004bb4:	00008067          	ret

80004bb8 <strcmp>:
80004bb8:	00054783          	lbu	a5,0(a0)
80004bbc:	00150513          	addi	a0,a0,1
80004bc0:	00158593          	addi	a1,a1,1
80004bc4:	fff5c703          	lbu	a4,-1(a1)
80004bc8:	00078863          	beqz	a5,80004bd8 <strcmp+0x20>
80004bcc:	fee786e3          	beq	a5,a4,80004bb8 <strcmp>
80004bd0:	40e78533          	sub	a0,a5,a4
80004bd4:	00008067          	ret
80004bd8:	00000793          	li	a5,0
80004bdc:	ff5ff06f          	j	80004bd0 <strcmp+0x18>

80004be0 <strcpy>:
80004be0:	00050793          	mv	a5,a0
80004be4:	0005c703          	lbu	a4,0(a1)
80004be8:	00158593          	addi	a1,a1,1
80004bec:	00178793          	addi	a5,a5,1
80004bf0:	fee78fa3          	sb	a4,-1(a5)
80004bf4:	fe0718e3          	bnez	a4,80004be4 <strcpy+0x4>
80004bf8:	00008067          	ret

80004bfc <atol>:
80004bfc:	00054683          	lbu	a3,0(a0)
80004c00:	02000713          	li	a4,32
80004c04:	00050793          	mv	a5,a0
80004c08:	00e69a63          	bne	a3,a4,80004c1c <atol+0x20>
80004c0c:	00068713          	mv	a4,a3
80004c10:	0017c683          	lbu	a3,1(a5)
80004c14:	00178793          	addi	a5,a5,1
80004c18:	fee68ce3          	beq	a3,a4,80004c10 <atol+0x14>
80004c1c:	02d00713          	li	a4,45
80004c20:	04e68c63          	beq	a3,a4,80004c78 <atol+0x7c>
80004c24:	02b00713          	li	a4,43
80004c28:	02e68e63          	beq	a3,a4,80004c64 <atol+0x68>
80004c2c:	00000593          	li	a1,0
80004c30:	04068c63          	beqz	a3,80004c88 <atol+0x8c>
80004c34:	00000513          	li	a0,0
80004c38:	00178793          	addi	a5,a5,1
80004c3c:	fd068613          	addi	a2,a3,-48
80004c40:	00251713          	slli	a4,a0,0x2
80004c44:	0007c683          	lbu	a3,0(a5)
80004c48:	00a70733          	add	a4,a4,a0
80004c4c:	00171713          	slli	a4,a4,0x1
80004c50:	00e60533          	add	a0,a2,a4
80004c54:	fe0692e3          	bnez	a3,80004c38 <atol+0x3c>
80004c58:	02058a63          	beqz	a1,80004c8c <atol+0x90>
80004c5c:	40a00533          	neg	a0,a0
80004c60:	00008067          	ret
80004c64:	0017c683          	lbu	a3,1(a5)
80004c68:	00178793          	addi	a5,a5,1
80004c6c:	00068e63          	beqz	a3,80004c88 <atol+0x8c>
80004c70:	00000593          	li	a1,0
80004c74:	fc1ff06f          	j	80004c34 <atol+0x38>
80004c78:	0017c683          	lbu	a3,1(a5)
80004c7c:	00100593          	li	a1,1
80004c80:	00b787b3          	add	a5,a5,a1
80004c84:	fa0698e3          	bnez	a3,80004c34 <atol+0x38>
80004c88:	00000513          	li	a0,0
80004c8c:	00008067          	ret

80004c90 <__udivdi3>:
80004c90:	00050893          	mv	a7,a0
80004c94:	00058313          	mv	t1,a1
80004c98:	00060713          	mv	a4,a2
80004c9c:	00050813          	mv	a6,a0
80004ca0:	00058793          	mv	a5,a1
80004ca4:	28069263          	bnez	a3,80004f28 <__udivdi3+0x298>
80004ca8:	800065b7          	lui	a1,0x80006
80004cac:	94458593          	addi	a1,a1,-1724 # 80005944 <__clz_tab>
80004cb0:	0ec37663          	bgeu	t1,a2,80004d9c <__udivdi3+0x10c>
80004cb4:	000106b7          	lui	a3,0x10
80004cb8:	0cd67863          	bgeu	a2,a3,80004d88 <__udivdi3+0xf8>
80004cbc:	10063693          	sltiu	a3,a2,256
80004cc0:	0016b693          	seqz	a3,a3
80004cc4:	00369693          	slli	a3,a3,0x3
80004cc8:	00d65533          	srl	a0,a2,a3
80004ccc:	00a585b3          	add	a1,a1,a0
80004cd0:	0005c583          	lbu	a1,0(a1)
80004cd4:	02000513          	li	a0,32
80004cd8:	00d586b3          	add	a3,a1,a3
80004cdc:	40d505b3          	sub	a1,a0,a3
80004ce0:	00d50c63          	beq	a0,a3,80004cf8 <__udivdi3+0x68>
80004ce4:	00b317b3          	sll	a5,t1,a1
80004ce8:	00d8d6b3          	srl	a3,a7,a3
80004cec:	00b61733          	sll	a4,a2,a1
80004cf0:	00f6e7b3          	or	a5,a3,a5
80004cf4:	00b89833          	sll	a6,a7,a1
80004cf8:	01075593          	srli	a1,a4,0x10
80004cfc:	02b7d333          	divu	t1,a5,a1
80004d00:	01071613          	slli	a2,a4,0x10
80004d04:	01065613          	srli	a2,a2,0x10
80004d08:	02b7f7b3          	remu	a5,a5,a1
80004d0c:	00030513          	mv	a0,t1
80004d10:	026608b3          	mul	a7,a2,t1
80004d14:	01079693          	slli	a3,a5,0x10
80004d18:	01085793          	srli	a5,a6,0x10
80004d1c:	00d7e7b3          	or	a5,a5,a3
80004d20:	0117fe63          	bgeu	a5,a7,80004d3c <__udivdi3+0xac>
80004d24:	00f707b3          	add	a5,a4,a5
80004d28:	fff30513          	addi	a0,t1,-1
80004d2c:	00e7e863          	bltu	a5,a4,80004d3c <__udivdi3+0xac>
80004d30:	0117f663          	bgeu	a5,a7,80004d3c <__udivdi3+0xac>
80004d34:	ffe30513          	addi	a0,t1,-2
80004d38:	00e787b3          	add	a5,a5,a4
80004d3c:	411787b3          	sub	a5,a5,a7
80004d40:	02b7d8b3          	divu	a7,a5,a1
80004d44:	01081813          	slli	a6,a6,0x10
80004d48:	01085813          	srli	a6,a6,0x10
80004d4c:	02b7f7b3          	remu	a5,a5,a1
80004d50:	031606b3          	mul	a3,a2,a7
80004d54:	01079793          	slli	a5,a5,0x10
80004d58:	00f86833          	or	a6,a6,a5
80004d5c:	00088793          	mv	a5,a7
80004d60:	00d87c63          	bgeu	a6,a3,80004d78 <__udivdi3+0xe8>
80004d64:	01070833          	add	a6,a4,a6
80004d68:	fff88793          	addi	a5,a7,-1
80004d6c:	00e86663          	bltu	a6,a4,80004d78 <__udivdi3+0xe8>
80004d70:	00d87463          	bgeu	a6,a3,80004d78 <__udivdi3+0xe8>
80004d74:	ffe88793          	addi	a5,a7,-2
80004d78:	01051513          	slli	a0,a0,0x10
80004d7c:	00f56533          	or	a0,a0,a5
80004d80:	00000593          	li	a1,0
80004d84:	00008067          	ret
80004d88:	01000537          	lui	a0,0x1000
80004d8c:	01800693          	li	a3,24
80004d90:	f2a67ce3          	bgeu	a2,a0,80004cc8 <__udivdi3+0x38>
80004d94:	01000693          	li	a3,16
80004d98:	f31ff06f          	j	80004cc8 <__udivdi3+0x38>
80004d9c:	00000693          	li	a3,0
80004da0:	00060c63          	beqz	a2,80004db8 <__udivdi3+0x128>
80004da4:	000107b7          	lui	a5,0x10
80004da8:	0cf67063          	bgeu	a2,a5,80004e68 <__udivdi3+0x1d8>
80004dac:	10063693          	sltiu	a3,a2,256
80004db0:	0016b693          	seqz	a3,a3
80004db4:	00369693          	slli	a3,a3,0x3
80004db8:	00d657b3          	srl	a5,a2,a3
80004dbc:	00f585b3          	add	a1,a1,a5
80004dc0:	0005c783          	lbu	a5,0(a1)
80004dc4:	00d787b3          	add	a5,a5,a3
80004dc8:	02000693          	li	a3,32
80004dcc:	40f685b3          	sub	a1,a3,a5
80004dd0:	0af69663          	bne	a3,a5,80004e7c <__udivdi3+0x1ec>
80004dd4:	40c307b3          	sub	a5,t1,a2
80004dd8:	00100593          	li	a1,1
80004ddc:	01075893          	srli	a7,a4,0x10
80004de0:	0317de33          	divu	t3,a5,a7
80004de4:	01071613          	slli	a2,a4,0x10
80004de8:	01065613          	srli	a2,a2,0x10
80004dec:	01085693          	srli	a3,a6,0x10
80004df0:	0317f7b3          	remu	a5,a5,a7
80004df4:	000e0513          	mv	a0,t3
80004df8:	03c60333          	mul	t1,a2,t3
80004dfc:	01079793          	slli	a5,a5,0x10
80004e00:	00f6e7b3          	or	a5,a3,a5
80004e04:	0067fe63          	bgeu	a5,t1,80004e20 <__udivdi3+0x190>
80004e08:	00f707b3          	add	a5,a4,a5
80004e0c:	fffe0513          	addi	a0,t3,-1
80004e10:	00e7e863          	bltu	a5,a4,80004e20 <__udivdi3+0x190>
80004e14:	0067f663          	bgeu	a5,t1,80004e20 <__udivdi3+0x190>
80004e18:	ffee0513          	addi	a0,t3,-2
80004e1c:	00e787b3          	add	a5,a5,a4
80004e20:	406787b3          	sub	a5,a5,t1
80004e24:	0317d333          	divu	t1,a5,a7
80004e28:	01081813          	slli	a6,a6,0x10
80004e2c:	01085813          	srli	a6,a6,0x10
80004e30:	0317f7b3          	remu	a5,a5,a7
80004e34:	026606b3          	mul	a3,a2,t1
80004e38:	01079793          	slli	a5,a5,0x10
80004e3c:	00f86833          	or	a6,a6,a5
80004e40:	00030793          	mv	a5,t1
80004e44:	00d87c63          	bgeu	a6,a3,80004e5c <__udivdi3+0x1cc>
80004e48:	01070833          	add	a6,a4,a6
80004e4c:	fff30793          	addi	a5,t1,-1
80004e50:	00e86663          	bltu	a6,a4,80004e5c <__udivdi3+0x1cc>
80004e54:	00d87463          	bgeu	a6,a3,80004e5c <__udivdi3+0x1cc>
80004e58:	ffe30793          	addi	a5,t1,-2
80004e5c:	01051513          	slli	a0,a0,0x10
80004e60:	00f56533          	or	a0,a0,a5
80004e64:	00008067          	ret
80004e68:	010007b7          	lui	a5,0x1000
80004e6c:	01800693          	li	a3,24
80004e70:	f4f674e3          	bgeu	a2,a5,80004db8 <__udivdi3+0x128>
80004e74:	01000693          	li	a3,16
80004e78:	f41ff06f          	j	80004db8 <__udivdi3+0x128>
80004e7c:	00b61733          	sll	a4,a2,a1
80004e80:	00f356b3          	srl	a3,t1,a5
80004e84:	01075513          	srli	a0,a4,0x10
80004e88:	00b31333          	sll	t1,t1,a1
80004e8c:	00f8d7b3          	srl	a5,a7,a5
80004e90:	0067e7b3          	or	a5,a5,t1
80004e94:	02a6d333          	divu	t1,a3,a0
80004e98:	01071613          	slli	a2,a4,0x10
80004e9c:	01065613          	srli	a2,a2,0x10
80004ea0:	00b89833          	sll	a6,a7,a1
80004ea4:	02a6f6b3          	remu	a3,a3,a0
80004ea8:	026608b3          	mul	a7,a2,t1
80004eac:	01069593          	slli	a1,a3,0x10
80004eb0:	0107d693          	srli	a3,a5,0x10
80004eb4:	00b6e6b3          	or	a3,a3,a1
80004eb8:	00030593          	mv	a1,t1
80004ebc:	0116fe63          	bgeu	a3,a7,80004ed8 <__udivdi3+0x248>
80004ec0:	00d706b3          	add	a3,a4,a3
80004ec4:	fff30593          	addi	a1,t1,-1
80004ec8:	00e6e863          	bltu	a3,a4,80004ed8 <__udivdi3+0x248>
80004ecc:	0116f663          	bgeu	a3,a7,80004ed8 <__udivdi3+0x248>
80004ed0:	ffe30593          	addi	a1,t1,-2
80004ed4:	00e686b3          	add	a3,a3,a4
80004ed8:	411686b3          	sub	a3,a3,a7
80004edc:	02a6d8b3          	divu	a7,a3,a0
80004ee0:	01079793          	slli	a5,a5,0x10
80004ee4:	0107d793          	srli	a5,a5,0x10
80004ee8:	02a6f6b3          	remu	a3,a3,a0
80004eec:	03160633          	mul	a2,a2,a7
80004ef0:	01069693          	slli	a3,a3,0x10
80004ef4:	00d7e7b3          	or	a5,a5,a3
80004ef8:	00088693          	mv	a3,a7
80004efc:	00c7fe63          	bgeu	a5,a2,80004f18 <__udivdi3+0x288>
80004f00:	00f707b3          	add	a5,a4,a5
80004f04:	fff88693          	addi	a3,a7,-1
80004f08:	00e7e863          	bltu	a5,a4,80004f18 <__udivdi3+0x288>
80004f0c:	00c7f663          	bgeu	a5,a2,80004f18 <__udivdi3+0x288>
80004f10:	ffe88693          	addi	a3,a7,-2
80004f14:	00e787b3          	add	a5,a5,a4
80004f18:	01059593          	slli	a1,a1,0x10
80004f1c:	40c787b3          	sub	a5,a5,a2
80004f20:	00d5e5b3          	or	a1,a1,a3
80004f24:	eb9ff06f          	j	80004ddc <__udivdi3+0x14c>
80004f28:	18d5e463          	bltu	a1,a3,800050b0 <__udivdi3+0x420>
80004f2c:	000107b7          	lui	a5,0x10
80004f30:	04f6f463          	bgeu	a3,a5,80004f78 <__udivdi3+0x2e8>
80004f34:	1006b793          	sltiu	a5,a3,256
80004f38:	0017b793          	seqz	a5,a5
80004f3c:	00379793          	slli	a5,a5,0x3
80004f40:	80006737          	lui	a4,0x80006
80004f44:	00f6d5b3          	srl	a1,a3,a5
80004f48:	94470713          	addi	a4,a4,-1724 # 80005944 <__clz_tab>
80004f4c:	00b70733          	add	a4,a4,a1
80004f50:	00074703          	lbu	a4,0(a4)
80004f54:	00f70733          	add	a4,a4,a5
80004f58:	02000793          	li	a5,32
80004f5c:	40e785b3          	sub	a1,a5,a4
80004f60:	02e79663          	bne	a5,a4,80004f8c <__udivdi3+0x2fc>
80004f64:	00100513          	li	a0,1
80004f68:	e066eee3          	bltu	a3,t1,80004d84 <__udivdi3+0xf4>
80004f6c:	00c8b533          	sltu	a0,a7,a2
80004f70:	00153513          	seqz	a0,a0
80004f74:	00008067          	ret
80004f78:	01000737          	lui	a4,0x1000
80004f7c:	01800793          	li	a5,24
80004f80:	fce6f0e3          	bgeu	a3,a4,80004f40 <__udivdi3+0x2b0>
80004f84:	01000793          	li	a5,16
80004f88:	fb9ff06f          	j	80004f40 <__udivdi3+0x2b0>
80004f8c:	00e65533          	srl	a0,a2,a4
80004f90:	00b696b3          	sll	a3,a3,a1
80004f94:	00e357b3          	srl	a5,t1,a4
80004f98:	00d56533          	or	a0,a0,a3
80004f9c:	00b31333          	sll	t1,t1,a1
80004fa0:	00e8d733          	srl	a4,a7,a4
80004fa4:	00676733          	or	a4,a4,t1
80004fa8:	01055313          	srli	t1,a0,0x10
80004fac:	0267deb3          	divu	t4,a5,t1
80004fb0:	01051813          	slli	a6,a0,0x10
80004fb4:	01085813          	srli	a6,a6,0x10
80004fb8:	01075693          	srli	a3,a4,0x10
80004fbc:	00b61633          	sll	a2,a2,a1
80004fc0:	0267f7b3          	remu	a5,a5,t1
80004fc4:	03d80e33          	mul	t3,a6,t4
80004fc8:	01079793          	slli	a5,a5,0x10
80004fcc:	00f6e6b3          	or	a3,a3,a5
80004fd0:	000e8793          	mv	a5,t4
80004fd4:	01c6fe63          	bgeu	a3,t3,80004ff0 <__udivdi3+0x360>
80004fd8:	00d506b3          	add	a3,a0,a3
80004fdc:	fffe8793          	addi	a5,t4,-1
80004fe0:	00a6e863          	bltu	a3,a0,80004ff0 <__udivdi3+0x360>
80004fe4:	01c6f663          	bgeu	a3,t3,80004ff0 <__udivdi3+0x360>
80004fe8:	ffee8793          	addi	a5,t4,-2
80004fec:	00a686b3          	add	a3,a3,a0
80004ff0:	41c686b3          	sub	a3,a3,t3
80004ff4:	0266de33          	divu	t3,a3,t1
80004ff8:	01071713          	slli	a4,a4,0x10
80004ffc:	01075713          	srli	a4,a4,0x10
80005000:	0266f6b3          	remu	a3,a3,t1
80005004:	03c80833          	mul	a6,a6,t3
80005008:	01069693          	slli	a3,a3,0x10
8000500c:	00d76733          	or	a4,a4,a3
80005010:	000e0693          	mv	a3,t3
80005014:	01077e63          	bgeu	a4,a6,80005030 <__udivdi3+0x3a0>
80005018:	00e50733          	add	a4,a0,a4
8000501c:	fffe0693          	addi	a3,t3,-1
80005020:	00a76863          	bltu	a4,a0,80005030 <__udivdi3+0x3a0>
80005024:	01077663          	bgeu	a4,a6,80005030 <__udivdi3+0x3a0>
80005028:	ffee0693          	addi	a3,t3,-2
8000502c:	00a70733          	add	a4,a4,a0
80005030:	01079793          	slli	a5,a5,0x10
80005034:	00d7e533          	or	a0,a5,a3
80005038:	01061313          	slli	t1,a2,0x10
8000503c:	01069693          	slli	a3,a3,0x10
80005040:	0106d693          	srli	a3,a3,0x10
80005044:	01035313          	srli	t1,t1,0x10
80005048:	01065613          	srli	a2,a2,0x10
8000504c:	41070733          	sub	a4,a4,a6
80005050:	01055813          	srli	a6,a0,0x10
80005054:	02668e33          	mul	t3,a3,t1
80005058:	02680333          	mul	t1,a6,t1
8000505c:	010e5793          	srli	a5,t3,0x10
80005060:	02c686b3          	mul	a3,a3,a2
80005064:	006686b3          	add	a3,a3,t1
80005068:	00d787b3          	add	a5,a5,a3
8000506c:	02c80833          	mul	a6,a6,a2
80005070:	0067f663          	bgeu	a5,t1,8000507c <__udivdi3+0x3ec>
80005074:	000106b7          	lui	a3,0x10
80005078:	00d80833          	add	a6,a6,a3
8000507c:	0107d693          	srli	a3,a5,0x10
80005080:	010686b3          	add	a3,a3,a6
80005084:	02d76263          	bltu	a4,a3,800050a8 <__udivdi3+0x418>
80005088:	ced71ce3          	bne	a4,a3,80004d80 <__udivdi3+0xf0>
8000508c:	010e1e13          	slli	t3,t3,0x10
80005090:	01079793          	slli	a5,a5,0x10
80005094:	010e5e13          	srli	t3,t3,0x10
80005098:	00b898b3          	sll	a7,a7,a1
8000509c:	01c787b3          	add	a5,a5,t3
800050a0:	00000593          	li	a1,0
800050a4:	cef8f0e3          	bgeu	a7,a5,80004d84 <__udivdi3+0xf4>
800050a8:	fff50513          	addi	a0,a0,-1 # ffffff <buflen.1+0xffffbf>
800050ac:	cd5ff06f          	j	80004d80 <__udivdi3+0xf0>
800050b0:	00000593          	li	a1,0
800050b4:	00000513          	li	a0,0
800050b8:	00008067          	ret

800050bc <__umoddi3>:
800050bc:	00060813          	mv	a6,a2
800050c0:	00050793          	mv	a5,a0
800050c4:	00058713          	mv	a4,a1
800050c8:	20069663          	bnez	a3,800052d4 <__umoddi3+0x218>
800050cc:	800068b7          	lui	a7,0x80006
800050d0:	94488893          	addi	a7,a7,-1724 # 80005944 <__clz_tab>
800050d4:	0cc5fc63          	bgeu	a1,a2,800051ac <__umoddi3+0xf0>
800050d8:	000106b7          	lui	a3,0x10
800050dc:	0ad67e63          	bgeu	a2,a3,80005198 <__umoddi3+0xdc>
800050e0:	10063693          	sltiu	a3,a2,256
800050e4:	0016b693          	seqz	a3,a3
800050e8:	00369693          	slli	a3,a3,0x3
800050ec:	00d65333          	srl	t1,a2,a3
800050f0:	006888b3          	add	a7,a7,t1
800050f4:	0008c883          	lbu	a7,0(a7)
800050f8:	02000313          	li	t1,32
800050fc:	00d886b3          	add	a3,a7,a3
80005100:	40d308b3          	sub	a7,t1,a3
80005104:	00d30c63          	beq	t1,a3,8000511c <__umoddi3+0x60>
80005108:	01159733          	sll	a4,a1,a7
8000510c:	00d556b3          	srl	a3,a0,a3
80005110:	01161833          	sll	a6,a2,a7
80005114:	00e6e733          	or	a4,a3,a4
80005118:	011517b3          	sll	a5,a0,a7
8000511c:	01085613          	srli	a2,a6,0x10
80005120:	02c756b3          	divu	a3,a4,a2
80005124:	01081513          	slli	a0,a6,0x10
80005128:	01055513          	srli	a0,a0,0x10
8000512c:	02c77733          	remu	a4,a4,a2
80005130:	02a686b3          	mul	a3,a3,a0
80005134:	01071593          	slli	a1,a4,0x10
80005138:	0107d713          	srli	a4,a5,0x10
8000513c:	00b76733          	or	a4,a4,a1
80005140:	00d77a63          	bgeu	a4,a3,80005154 <__umoddi3+0x98>
80005144:	00e80733          	add	a4,a6,a4
80005148:	01076663          	bltu	a4,a6,80005154 <__umoddi3+0x98>
8000514c:	00d77463          	bgeu	a4,a3,80005154 <__umoddi3+0x98>
80005150:	01070733          	add	a4,a4,a6
80005154:	40d70733          	sub	a4,a4,a3
80005158:	02c756b3          	divu	a3,a4,a2
8000515c:	02c77733          	remu	a4,a4,a2
80005160:	02a686b3          	mul	a3,a3,a0
80005164:	01079793          	slli	a5,a5,0x10
80005168:	01071713          	slli	a4,a4,0x10
8000516c:	0107d793          	srli	a5,a5,0x10
80005170:	00e7e7b3          	or	a5,a5,a4
80005174:	00d7fa63          	bgeu	a5,a3,80005188 <__umoddi3+0xcc>
80005178:	00f807b3          	add	a5,a6,a5
8000517c:	0107e663          	bltu	a5,a6,80005188 <__umoddi3+0xcc>
80005180:	00d7f463          	bgeu	a5,a3,80005188 <__umoddi3+0xcc>
80005184:	010787b3          	add	a5,a5,a6
80005188:	40d787b3          	sub	a5,a5,a3
8000518c:	0117d533          	srl	a0,a5,a7
80005190:	00000593          	li	a1,0
80005194:	00008067          	ret
80005198:	01000337          	lui	t1,0x1000
8000519c:	01800693          	li	a3,24
800051a0:	f46676e3          	bgeu	a2,t1,800050ec <__umoddi3+0x30>
800051a4:	01000693          	li	a3,16
800051a8:	f45ff06f          	j	800050ec <__umoddi3+0x30>
800051ac:	00000693          	li	a3,0
800051b0:	00060c63          	beqz	a2,800051c8 <__umoddi3+0x10c>
800051b4:	00010737          	lui	a4,0x10
800051b8:	06e67e63          	bgeu	a2,a4,80005234 <__umoddi3+0x178>
800051bc:	10063693          	sltiu	a3,a2,256
800051c0:	0016b693          	seqz	a3,a3
800051c4:	00369693          	slli	a3,a3,0x3
800051c8:	00d65733          	srl	a4,a2,a3
800051cc:	00e888b3          	add	a7,a7,a4
800051d0:	0008c703          	lbu	a4,0(a7)
800051d4:	00d70733          	add	a4,a4,a3
800051d8:	02000693          	li	a3,32
800051dc:	40e688b3          	sub	a7,a3,a4
800051e0:	06e69463          	bne	a3,a4,80005248 <__umoddi3+0x18c>
800051e4:	40c58733          	sub	a4,a1,a2
800051e8:	01085593          	srli	a1,a6,0x10
800051ec:	02b75633          	divu	a2,a4,a1
800051f0:	01081513          	slli	a0,a6,0x10
800051f4:	01055513          	srli	a0,a0,0x10
800051f8:	0107d693          	srli	a3,a5,0x10
800051fc:	02b77733          	remu	a4,a4,a1
80005200:	02a60633          	mul	a2,a2,a0
80005204:	01071713          	slli	a4,a4,0x10
80005208:	00e6e733          	or	a4,a3,a4
8000520c:	00c77a63          	bgeu	a4,a2,80005220 <__umoddi3+0x164>
80005210:	00e80733          	add	a4,a6,a4
80005214:	01076663          	bltu	a4,a6,80005220 <__umoddi3+0x164>
80005218:	00c77463          	bgeu	a4,a2,80005220 <__umoddi3+0x164>
8000521c:	01070733          	add	a4,a4,a6
80005220:	40c70733          	sub	a4,a4,a2
80005224:	02b756b3          	divu	a3,a4,a1
80005228:	02b77733          	remu	a4,a4,a1
8000522c:	02a686b3          	mul	a3,a3,a0
80005230:	f35ff06f          	j	80005164 <__umoddi3+0xa8>
80005234:	01000737          	lui	a4,0x1000
80005238:	01800693          	li	a3,24
8000523c:	f8e676e3          	bgeu	a2,a4,800051c8 <__umoddi3+0x10c>
80005240:	01000693          	li	a3,16
80005244:	f85ff06f          	j	800051c8 <__umoddi3+0x10c>
80005248:	01161833          	sll	a6,a2,a7
8000524c:	00e5d6b3          	srl	a3,a1,a4
80005250:	011517b3          	sll	a5,a0,a7
80005254:	011595b3          	sll	a1,a1,a7
80005258:	00e55733          	srl	a4,a0,a4
8000525c:	01085513          	srli	a0,a6,0x10
80005260:	00b76733          	or	a4,a4,a1
80005264:	02a6d5b3          	divu	a1,a3,a0
80005268:	01081313          	slli	t1,a6,0x10
8000526c:	01035313          	srli	t1,t1,0x10
80005270:	02a6f6b3          	remu	a3,a3,a0
80005274:	026585b3          	mul	a1,a1,t1
80005278:	01069613          	slli	a2,a3,0x10
8000527c:	01075693          	srli	a3,a4,0x10
80005280:	00c6e6b3          	or	a3,a3,a2
80005284:	00b6fa63          	bgeu	a3,a1,80005298 <__umoddi3+0x1dc>
80005288:	00d806b3          	add	a3,a6,a3
8000528c:	0106e663          	bltu	a3,a6,80005298 <__umoddi3+0x1dc>
80005290:	00b6f463          	bgeu	a3,a1,80005298 <__umoddi3+0x1dc>
80005294:	010686b3          	add	a3,a3,a6
80005298:	40b686b3          	sub	a3,a3,a1
8000529c:	02a6d633          	divu	a2,a3,a0
800052a0:	01071713          	slli	a4,a4,0x10
800052a4:	01075713          	srli	a4,a4,0x10
800052a8:	02a6f6b3          	remu	a3,a3,a0
800052ac:	02660633          	mul	a2,a2,t1
800052b0:	01069693          	slli	a3,a3,0x10
800052b4:	00d76733          	or	a4,a4,a3
800052b8:	00c77a63          	bgeu	a4,a2,800052cc <__umoddi3+0x210>
800052bc:	00e80733          	add	a4,a6,a4
800052c0:	01076663          	bltu	a4,a6,800052cc <__umoddi3+0x210>
800052c4:	00c77463          	bgeu	a4,a2,800052cc <__umoddi3+0x210>
800052c8:	01070733          	add	a4,a4,a6
800052cc:	40c70733          	sub	a4,a4,a2
800052d0:	f19ff06f          	j	800051e8 <__umoddi3+0x12c>
800052d4:	1cd5e263          	bltu	a1,a3,80005498 <__umoddi3+0x3dc>
800052d8:	00010837          	lui	a6,0x10
800052dc:	0506fe63          	bgeu	a3,a6,80005338 <__umoddi3+0x27c>
800052e0:	1006b813          	sltiu	a6,a3,256
800052e4:	00183813          	seqz	a6,a6
800052e8:	00381813          	slli	a6,a6,0x3
800052ec:	800068b7          	lui	a7,0x80006
800052f0:	0106d333          	srl	t1,a3,a6
800052f4:	94488893          	addi	a7,a7,-1724 # 80005944 <__clz_tab>
800052f8:	006888b3          	add	a7,a7,t1
800052fc:	0008c883          	lbu	a7,0(a7)
80005300:	02000313          	li	t1,32
80005304:	010888b3          	add	a7,a7,a6
80005308:	41130833          	sub	a6,t1,a7
8000530c:	05131063          	bne	t1,a7,8000534c <__umoddi3+0x290>
80005310:	00b6e463          	bltu	a3,a1,80005318 <__umoddi3+0x25c>
80005314:	00c56c63          	bltu	a0,a2,8000532c <__umoddi3+0x270>
80005318:	40c50633          	sub	a2,a0,a2
8000531c:	40d586b3          	sub	a3,a1,a3
80005320:	00c53733          	sltu	a4,a0,a2
80005324:	00060793          	mv	a5,a2
80005328:	40e68733          	sub	a4,a3,a4
8000532c:	00078513          	mv	a0,a5
80005330:	00070593          	mv	a1,a4
80005334:	00008067          	ret
80005338:	010008b7          	lui	a7,0x1000
8000533c:	01800813          	li	a6,24
80005340:	fb16f6e3          	bgeu	a3,a7,800052ec <__umoddi3+0x230>
80005344:	01000813          	li	a6,16
80005348:	fa5ff06f          	j	800052ec <__umoddi3+0x230>
8000534c:	011657b3          	srl	a5,a2,a7
80005350:	010696b3          	sll	a3,a3,a6
80005354:	00d7e6b3          	or	a3,a5,a3
80005358:	0115d733          	srl	a4,a1,a7
8000535c:	0106d313          	srli	t1,a3,0x10
80005360:	02675f33          	divu	t5,a4,t1
80005364:	01069e13          	slli	t3,a3,0x10
80005368:	010e5e13          	srli	t3,t3,0x10
8000536c:	010597b3          	sll	a5,a1,a6
80005370:	011555b3          	srl	a1,a0,a7
80005374:	00f5e5b3          	or	a1,a1,a5
80005378:	0105d793          	srli	a5,a1,0x10
8000537c:	01061633          	sll	a2,a2,a6
80005380:	01051533          	sll	a0,a0,a6
80005384:	02677733          	remu	a4,a4,t1
80005388:	03ee0eb3          	mul	t4,t3,t5
8000538c:	01071713          	slli	a4,a4,0x10
80005390:	00e7e7b3          	or	a5,a5,a4
80005394:	000f0713          	mv	a4,t5
80005398:	01d7fe63          	bgeu	a5,t4,800053b4 <__umoddi3+0x2f8>
8000539c:	00f687b3          	add	a5,a3,a5
800053a0:	ffff0713          	addi	a4,t5,-1
800053a4:	00d7e863          	bltu	a5,a3,800053b4 <__umoddi3+0x2f8>
800053a8:	01d7f663          	bgeu	a5,t4,800053b4 <__umoddi3+0x2f8>
800053ac:	ffef0713          	addi	a4,t5,-2
800053b0:	00d787b3          	add	a5,a5,a3
800053b4:	41d787b3          	sub	a5,a5,t4
800053b8:	0267deb3          	divu	t4,a5,t1
800053bc:	01059593          	slli	a1,a1,0x10
800053c0:	0105d593          	srli	a1,a1,0x10
800053c4:	0267f7b3          	remu	a5,a5,t1
800053c8:	000e8313          	mv	t1,t4
800053cc:	03de0e33          	mul	t3,t3,t4
800053d0:	01079793          	slli	a5,a5,0x10
800053d4:	00f5e5b3          	or	a1,a1,a5
800053d8:	01c5fe63          	bgeu	a1,t3,800053f4 <__umoddi3+0x338>
800053dc:	00b685b3          	add	a1,a3,a1
800053e0:	fffe8313          	addi	t1,t4,-1
800053e4:	00d5e863          	bltu	a1,a3,800053f4 <__umoddi3+0x338>
800053e8:	01c5f663          	bgeu	a1,t3,800053f4 <__umoddi3+0x338>
800053ec:	ffee8313          	addi	t1,t4,-2
800053f0:	00d585b3          	add	a1,a1,a3
800053f4:	01071793          	slli	a5,a4,0x10
800053f8:	0067e7b3          	or	a5,a5,t1
800053fc:	41c585b3          	sub	a1,a1,t3
80005400:	01031313          	slli	t1,t1,0x10
80005404:	01061e13          	slli	t3,a2,0x10
80005408:	01065713          	srli	a4,a2,0x10
8000540c:	01035313          	srli	t1,t1,0x10
80005410:	0107d793          	srli	a5,a5,0x10
80005414:	010e5e13          	srli	t3,t3,0x10
80005418:	03c30eb3          	mul	t4,t1,t3
8000541c:	03c78e33          	mul	t3,a5,t3
80005420:	02e30333          	mul	t1,t1,a4
80005424:	02e787b3          	mul	a5,a5,a4
80005428:	01c30333          	add	t1,t1,t3
8000542c:	010ed713          	srli	a4,t4,0x10
80005430:	00670733          	add	a4,a4,t1
80005434:	01c77663          	bgeu	a4,t3,80005440 <__umoddi3+0x384>
80005438:	00010337          	lui	t1,0x10
8000543c:	006787b3          	add	a5,a5,t1
80005440:	01075313          	srli	t1,a4,0x10
80005444:	010e9e93          	slli	t4,t4,0x10
80005448:	01071713          	slli	a4,a4,0x10
8000544c:	010ede93          	srli	t4,t4,0x10
80005450:	00f307b3          	add	a5,t1,a5
80005454:	01d70733          	add	a4,a4,t4
80005458:	00f5e663          	bltu	a1,a5,80005464 <__umoddi3+0x3a8>
8000545c:	00f59e63          	bne	a1,a5,80005478 <__umoddi3+0x3bc>
80005460:	00e57c63          	bgeu	a0,a4,80005478 <__umoddi3+0x3bc>
80005464:	40c70633          	sub	a2,a4,a2
80005468:	00c73333          	sltu	t1,a4,a2
8000546c:	00d306b3          	add	a3,t1,a3
80005470:	00060713          	mv	a4,a2
80005474:	40d787b3          	sub	a5,a5,a3
80005478:	40e50733          	sub	a4,a0,a4
8000547c:	00e53533          	sltu	a0,a0,a4
80005480:	40f585b3          	sub	a1,a1,a5
80005484:	40a585b3          	sub	a1,a1,a0
80005488:	011598b3          	sll	a7,a1,a7
8000548c:	01075733          	srl	a4,a4,a6
80005490:	00e8e533          	or	a0,a7,a4
80005494:	0105d5b3          	srl	a1,a1,a6
80005498:	00008067          	ret

Disassembly of section .text.startup:

8000549c <main>:
8000549c:	fd010113          	addi	sp,sp,-48
800054a0:	01c00713          	li	a4,28
800054a4:	06300793          	li	a5,99
800054a8:	02112623          	sw	ra,44(sp)
800054ac:	02812423          	sw	s0,40(sp)
800054b0:	00000597          	auipc	a1,0x0
800054b4:	5d058593          	addi	a1,a1,1488 # 80005a80 <g_nodeFreeList>
800054b8:	00e5a023          	sw	a4,0(a1)
800054bc:	8ef1a823          	sw	a5,-1808(gp) # 80005b70 <g_nodePool+0xd8>
800054c0:	8e01aa23          	sw	zero,-1804(gp) # 80005b74 <g_nodePool+0xdc>
800054c4:	00000797          	auipc	a5,0x0
800054c8:	5dc78793          	addi	a5,a5,1500 # 80005aa0 <g_nodePool+0x8>
800054cc:	00000713          	li	a4,0
800054d0:	01b00613          	li	a2,27
800054d4:	fee7ac23          	sw	a4,-8(a5)
800054d8:	fef7ae23          	sw	a5,-4(a5)
800054dc:	00170713          	addi	a4,a4,1 # 1000001 <buflen.1+0xffffc1>
800054e0:	00878793          	addi	a5,a5,8
800054e4:	fec718e3          	bne	a4,a2,800054d4 <main+0x38>
800054e8:	01c00713          	li	a4,28
800054ec:	00012223          	sw	zero,4(sp)
800054f0:	00012823          	sw	zero,16(sp)
800054f4:	00012a23          	sw	zero,20(sp)
800054f8:	00012c23          	sw	zero,24(sp)
800054fc:	00012e23          	sw	zero,28(sp)
80005500:	00e12023          	sw	a4,0(sp)
80005504:	00000693          	li	a3,0
80005508:	00000797          	auipc	a5,0x0
8000550c:	59078793          	addi	a5,a5,1424 # 80005a98 <g_nodePool>
80005510:	00c0006f          	j	8000551c <main+0x80>
80005514:	00078693          	mv	a3,a5
80005518:	00060793          	mv	a5,a2
8000551c:	0047a603          	lw	a2,4(a5)
80005520:	00e7a023          	sw	a4,0(a5)
80005524:	00d7a223          	sw	a3,4(a5)
80005528:	fff70713          	addi	a4,a4,-1
8000552c:	fe0714e3          	bnez	a4,80005514 <main+0x78>
80005530:	00c5a223          	sw	a2,4(a1)
80005534:	00d7a223          	sw	a3,4(a5)
80005538:	00f12623          	sw	a5,12(sp)
8000553c:	00100413          	li	s0,1
80005540:	0087a023          	sw	s0,0(a5)
80005544:	01c00593          	li	a1,28
80005548:	00000517          	auipc	a0,0x0
8000554c:	0e850513          	addi	a0,a0,232 # 80005630 <main+0x194>
80005550:	00b12423          	sw	a1,8(sp)
80005554:	9a0ff0ef          	jal	800046f4 <printf>
80005558:	00010513          	mv	a0,sp
8000555c:	bd1fc0ef          	jal	8000212c <towers_clear>
80005560:	00040513          	mv	a0,s0
80005564:	cedfe0ef          	jal	80004250 <setStats>
80005568:	00012583          	lw	a1,0(sp)
8000556c:	00010513          	mv	a0,sp
80005570:	01810713          	addi	a4,sp,24
80005574:	01010693          	addi	a3,sp,16
80005578:	00810613          	addi	a2,sp,8
8000557c:	cedfc0ef          	jal	80002268 <towers_solve_h>
80005580:	00000513          	li	a0,0
80005584:	ccdfe0ef          	jal	80004250 <setStats>
80005588:	00812783          	lw	a5,8(sp)
8000558c:	00200513          	li	a0,2
80005590:	04079063          	bnez	a5,800055d0 <main+0x134>
80005594:	01012503          	lw	a0,16(sp)
80005598:	06051663          	bnez	a0,80005604 <main+0x168>
8000559c:	00012603          	lw	a2,0(sp)
800055a0:	01812783          	lw	a5,24(sp)
800055a4:	02c79e63          	bne	a5,a2,800055e0 <main+0x144>
800055a8:	01c12783          	lw	a5,28(sp)
800055ac:	02078e63          	beqz	a5,800055e8 <main+0x14c>
800055b0:	00000713          	li	a4,0
800055b4:	00c0006f          	j	800055c0 <main+0x124>
800055b8:	0047a783          	lw	a5,4(a5)
800055bc:	02078663          	beqz	a5,800055e8 <main+0x14c>
800055c0:	0007a683          	lw	a3,0(a5)
800055c4:	00170713          	addi	a4,a4,1
800055c8:	fed708e3          	beq	a4,a3,800055b8 <main+0x11c>
800055cc:	00500513          	li	a0,5
800055d0:	02c12083          	lw	ra,44(sp)
800055d4:	02812403          	lw	s0,40(sp)
800055d8:	03010113          	addi	sp,sp,48
800055dc:	00008067          	ret
800055e0:	00400513          	li	a0,4
800055e4:	fedff06f          	j	800055d0 <main+0x134>
800055e8:	00100793          	li	a5,1
800055ec:	00412703          	lw	a4,4(sp)
800055f0:	00c797b3          	sll	a5,a5,a2
800055f4:	fff78793          	addi	a5,a5,-1
800055f8:	fcf70ce3          	beq	a4,a5,800055d0 <main+0x134>
800055fc:	00600513          	li	a0,6
80005600:	fd1ff06f          	j	800055d0 <main+0x134>
80005604:	00300513          	li	a0,3
80005608:	fc9ff06f          	j	800055d0 <main+0x134>
8000560c:	ff010113          	addi	sp,sp,-16
80005610:	00000517          	auipc	a0,0x0
80005614:	06050513          	addi	a0,a0,96 # 80005670 <main+0x1d4>
80005618:	00112623          	sw	ra,12(sp)
8000561c:	cfdfe0ef          	jal	80004318 <printstr>
80005620:	00c12083          	lw	ra,12(sp)
80005624:	fff00513          	li	a0,-1
80005628:	01010113          	addi	sp,sp,16
8000562c:	00008067          	ret
